	.file	"sync_asm.cpp"
	.section	.text$_ZNSt16_Sp_counted_baseILN9__gnu_cxx12_Lock_policyE2EE10_M_destroyEv,"x"
	.linkonce discard
	.align 2
	.p2align 4,,15
	.globl	__ZNSt16_Sp_counted_baseILN9__gnu_cxx12_Lock_policyE2EE10_M_destroyEv
	.def	__ZNSt16_Sp_counted_baseILN9__gnu_cxx12_Lock_policyE2EE10_M_destroyEv;	.scl	2;	.type	32;	.endef
__ZNSt16_Sp_counted_baseILN9__gnu_cxx12_Lock_policyE2EE10_M_destroyEv:
LFB2292:
	.cfi_startproc
	movl	4(%esp), %eax
	testl	%eax, %eax
	je	L1
	movl	(%eax), %edx
	movl	4(%edx), %eax
	jmp	*%eax
	.p2align 4,,7
L1:
	rep ret
	.cfi_endproc
LFE2292:
	.section	.text$_ZNSt16_Sp_counted_baseILN9__gnu_cxx12_Lock_policyE2EED1Ev,"x"
	.linkonce discard
	.align 2
	.p2align 4,,15
	.globl	__ZNSt16_Sp_counted_baseILN9__gnu_cxx12_Lock_policyE2EED1Ev
	.def	__ZNSt16_Sp_counted_baseILN9__gnu_cxx12_Lock_policyE2EED1Ev;	.scl	2;	.type	32;	.endef
__ZNSt16_Sp_counted_baseILN9__gnu_cxx12_Lock_policyE2EED1Ev:
LFB2328:
	.cfi_startproc
	movl	4(%esp), %eax
	movl	$__ZTVSt16_Sp_counted_baseILN9__gnu_cxx12_Lock_policyE2EE+8, (%eax)
	ret
	.cfi_endproc
LFE2328:
	.section	.text$_ZNSt23_Sp_counted_ptr_inplaceINSt6thread5_ImplISt12_Bind_simpleIFPFjPKcES4_EEEESaIS9_ELN9__gnu_cxx12_Lock_policyE2EED1Ev,"x"
	.linkonce discard
	.align 2
	.p2align 4,,15
	.globl	__ZNSt23_Sp_counted_ptr_inplaceINSt6thread5_ImplISt12_Bind_simpleIFPFjPKcES4_EEEESaIS9_ELN9__gnu_cxx12_Lock_policyE2EED1Ev
	.def	__ZNSt23_Sp_counted_ptr_inplaceINSt6thread5_ImplISt12_Bind_simpleIFPFjPKcES4_EEEESaIS9_ELN9__gnu_cxx12_Lock_policyE2EED1Ev;	.scl	2;	.type	32;	.endef
__ZNSt23_Sp_counted_ptr_inplaceINSt6thread5_ImplISt12_Bind_simpleIFPFjPKcES4_EEEESaIS9_ELN9__gnu_cxx12_Lock_policyE2EED1Ev:
LFB2440:
	.cfi_startproc
	movl	4(%esp), %eax
	movl	$__ZTVSt16_Sp_counted_baseILN9__gnu_cxx12_Lock_policyE2EE+8, (%eax)
	ret
	.cfi_endproc
LFE2440:
	.section	.text$_ZNSt23_Sp_counted_ptr_inplaceINSt6thread5_ImplISt12_Bind_simpleIFPFjPKcES4_EEEESaIS9_ELN9__gnu_cxx12_Lock_policyE2EE10_M_disposeEv,"x"
	.linkonce discard
	.align 2
	.p2align 4,,15
	.globl	__ZNSt23_Sp_counted_ptr_inplaceINSt6thread5_ImplISt12_Bind_simpleIFPFjPKcES4_EEEESaIS9_ELN9__gnu_cxx12_Lock_policyE2EE10_M_disposeEv
	.def	__ZNSt23_Sp_counted_ptr_inplaceINSt6thread5_ImplISt12_Bind_simpleIFPFjPKcES4_EEEESaIS9_ELN9__gnu_cxx12_Lock_policyE2EE10_M_disposeEv;	.scl	2;	.type	32;	.endef
__ZNSt23_Sp_counted_ptr_inplaceINSt6thread5_ImplISt12_Bind_simpleIFPFjPKcES4_EEEESaIS9_ELN9__gnu_cxx12_Lock_policyE2EE10_M_disposeEv:
LFB2442:
	.cfi_startproc
	movl	4(%esp), %eax
	movl	12(%eax), %eax
	movl	(%eax), %edx
	movl	%eax, 4(%esp)
	movl	(%edx), %eax
	jmp	*%eax
	.cfi_endproc
LFE2442:
	.section	.text$_ZNSt6thread5_ImplISt12_Bind_simpleIFPFjPKcES3_EEE6_M_runEv,"x"
	.linkonce discard
	.align 2
	.p2align 4,,15
	.globl	__ZNSt6thread5_ImplISt12_Bind_simpleIFPFjPKcES3_EEE6_M_runEv
	.def	__ZNSt6thread5_ImplISt12_Bind_simpleIFPFjPKcES3_EEE6_M_runEv;	.scl	2;	.type	32;	.endef
__ZNSt6thread5_ImplISt12_Bind_simpleIFPFjPKcES3_EEE6_M_runEv:
LFB2445:
	.cfi_startproc
	movl	4(%esp), %eax
	movl	12(%eax), %edx
	movl	%edx, 4(%esp)
	movl	16(%eax), %eax
	jmp	*%eax
	.cfi_endproc
LFE2445:
	.section	.text$_ZNSt16_Sp_counted_baseILN9__gnu_cxx12_Lock_policyE2EED0Ev,"x"
	.linkonce discard
	.align 2
	.p2align 4,,15
	.globl	__ZNSt16_Sp_counted_baseILN9__gnu_cxx12_Lock_policyE2EED0Ev
	.def	__ZNSt16_Sp_counted_baseILN9__gnu_cxx12_Lock_policyE2EED0Ev;	.scl	2;	.type	32;	.endef
__ZNSt16_Sp_counted_baseILN9__gnu_cxx12_Lock_policyE2EED0Ev:
LFB2329:
	.cfi_startproc
	movl	4(%esp), %eax
	movl	$__ZTVSt16_Sp_counted_baseILN9__gnu_cxx12_Lock_policyE2EE+8, (%eax)
	jmp	__ZdlPv
	.cfi_endproc
LFE2329:
	.section	.text$_ZNSt23_Sp_counted_ptr_inplaceINSt6thread5_ImplISt12_Bind_simpleIFPFjPKcES4_EEEESaIS9_ELN9__gnu_cxx12_Lock_policyE2EED0Ev,"x"
	.linkonce discard
	.align 2
	.p2align 4,,15
	.globl	__ZNSt23_Sp_counted_ptr_inplaceINSt6thread5_ImplISt12_Bind_simpleIFPFjPKcES4_EEEESaIS9_ELN9__gnu_cxx12_Lock_policyE2EED0Ev
	.def	__ZNSt23_Sp_counted_ptr_inplaceINSt6thread5_ImplISt12_Bind_simpleIFPFjPKcES4_EEEESaIS9_ELN9__gnu_cxx12_Lock_policyE2EED0Ev;	.scl	2;	.type	32;	.endef
__ZNSt23_Sp_counted_ptr_inplaceINSt6thread5_ImplISt12_Bind_simpleIFPFjPKcES4_EEEESaIS9_ELN9__gnu_cxx12_Lock_policyE2EED0Ev:
LFB2441:
	.cfi_startproc
	movl	4(%esp), %eax
	movl	$__ZTVSt16_Sp_counted_baseILN9__gnu_cxx12_Lock_policyE2EE+8, (%eax)
	jmp	__ZdlPv
	.cfi_endproc
LFE2441:
	.section	.text$_ZNSt23_Sp_counted_ptr_inplaceINSt6thread5_ImplISt12_Bind_simpleIFPFjPKcES4_EEEESaIS9_ELN9__gnu_cxx12_Lock_policyE2EE10_M_destroyEv,"x"
	.linkonce discard
	.align 2
	.p2align 4,,15
	.globl	__ZNSt23_Sp_counted_ptr_inplaceINSt6thread5_ImplISt12_Bind_simpleIFPFjPKcES4_EEEESaIS9_ELN9__gnu_cxx12_Lock_policyE2EE10_M_destroyEv
	.def	__ZNSt23_Sp_counted_ptr_inplaceINSt6thread5_ImplISt12_Bind_simpleIFPFjPKcES4_EEEESaIS9_ELN9__gnu_cxx12_Lock_policyE2EE10_M_destroyEv;	.scl	2;	.type	32;	.endef
__ZNSt23_Sp_counted_ptr_inplaceINSt6thread5_ImplISt12_Bind_simpleIFPFjPKcES4_EEEESaIS9_ELN9__gnu_cxx12_Lock_policyE2EE10_M_destroyEv:
LFB2443:
	.cfi_startproc
	movl	4(%esp), %eax
	movl	$__ZTVSt16_Sp_counted_baseILN9__gnu_cxx12_Lock_policyE2EE+8, (%eax)
	jmp	__ZdlPv
	.cfi_endproc
LFE2443:
	.section	.text$_ZNSt23_Sp_counted_ptr_inplaceINSt6thread5_ImplISt12_Bind_simpleIFPFjPKcES4_EEEESaIS9_ELN9__gnu_cxx12_Lock_policyE2EE14_M_get_deleterERKSt9type_info,"x"
	.linkonce discard
	.align 2
	.p2align 4,,15
	.globl	__ZNSt23_Sp_counted_ptr_inplaceINSt6thread5_ImplISt12_Bind_simpleIFPFjPKcES4_EEEESaIS9_ELN9__gnu_cxx12_Lock_policyE2EE14_M_get_deleterERKSt9type_info
	.def	__ZNSt23_Sp_counted_ptr_inplaceINSt6thread5_ImplISt12_Bind_simpleIFPFjPKcES4_EEEESaIS9_ELN9__gnu_cxx12_Lock_policyE2EE14_M_get_deleterERKSt9type_info;	.scl	2;	.type	32;	.endef
__ZNSt23_Sp_counted_ptr_inplaceINSt6thread5_ImplISt12_Bind_simpleIFPFjPKcES4_EEEESaIS9_ELN9__gnu_cxx12_Lock_policyE2EE14_M_get_deleterERKSt9type_info:
LFB2444:
	.cfi_startproc
	subl	$28, %esp
	.cfi_def_cfa_offset 32
	movl	36(%esp), %eax
	movl	$__ZTISt19_Sp_make_shared_tag, 4(%esp)
	movl	%eax, (%esp)
	call	__ZNKSt9type_infoeqERKS_
	movl	32(%esp), %ecx
	xorl	%edx, %edx
	addl	$16, %ecx
	testb	%al, %al
	cmovne	%ecx, %edx
	addl	$28, %esp
	.cfi_def_cfa_offset 4
	movl	%edx, %eax
	ret
	.cfi_endproc
LFE2444:
	.section .rdata,"dr"
LC0:
	.ascii "- begin:%s -\12\0"
	.align 4
LC1:
	.ascii "%s: [BEFORE] commonData=%d, tlsData=%d\12\0"
	.align 4
LC2:
	.ascii "%s: [AFTER]  commonData=%d, tlsData=%d\12\0"
LC3:
	.ascii "- end:%s -\12\0"
	.text
	.p2align 4,,15
	.globl	__Z10threadFuncPKc
	.def	__Z10threadFuncPKc;	.scl	2;	.type	32;	.endef
__Z10threadFuncPKc:
LFB2175:
	.cfi_startproc
	pushl	%ebp
	.cfi_def_cfa_offset 8
	.cfi_offset 5, -8
	pushl	%edi
	.cfi_def_cfa_offset 12
	.cfi_offset 7, -12
	pushl	%esi
	.cfi_def_cfa_offset 16
	.cfi_offset 6, -16
	pushl	%ebx
	.cfi_def_cfa_offset 20
	.cfi_offset 3, -20
	movl	$1, %ebx
	subl	$44, %esp
	.cfi_def_cfa_offset 64
	movl	64(%esp), %eax
	movl	$LC0, (%esp)
	movl	%eax, 4(%esp)
	call	_printf
	call	___getreent
	movl	8(%eax), %eax
	movl	%eax, (%esp)
	call	_fflush
	movl	$___emutls_v.s_tlsData, (%esp)
	call	___emutls_get_address
	movl	$3, 28(%esp)
	movl	%eax, %esi
	.p2align 4,,7
L17:
	movl	%ebx, %eax
	xchgb	_s_lock, %al
	testb	%al, %al
	jne	L17
	movl	(%esi), %eax
	movl	$LC1, (%esp)
	movl	%eax, 12(%esp)
	movl	__ZL12s_commonData, %eax
	movl	%eax, 8(%esp)
	movl	64(%esp), %eax
	movl	%eax, 4(%esp)
	call	_printf
	call	___getreent
	movl	8(%eax), %eax
	movl	%eax, (%esp)
	call	_fflush
	movl	__ZL12s_commonData, %eax
	leal	1(%eax), %edi
	movl	(%esi), %eax
	leal	1(%eax), %ebp
	call	_rand
	movl	$1717986919, %edx
	movl	$0, (%esp)
	movl	$0, 4(%esp)
	movl	%eax, %ecx
	imull	%edx
	movl	%ecx, %eax
	sarl	$31, %eax
	sarl	%edx
	subl	%eax, %edx
	leal	(%edx,%edx,4), %eax
	subl	%eax, %ecx
	movl	$1000000, %eax
	imull	%ecx
	movl	%edx, 12(%esp)
	movl	%eax, 8(%esp)
	call	__ZNSt11this_thread11__sleep_forENSt6chrono8durationIxSt5ratioILx1ELx1EEEENS1_IxS2_ILx1ELx1000000000EEEE
	movl	64(%esp), %eax
	movl	%ebp, (%esi)
	movl	%ebp, 12(%esp)
	movl	%edi, 8(%esp)
	movl	%eax, 4(%esp)
	movl	$LC2, (%esp)
	movl	%edi, __ZL12s_commonData
	call	_printf
	call	___getreent
	movl	8(%eax), %eax
	movl	%eax, (%esp)
	call	_fflush
	movb	$0, _s_lock
	mfence
	movl	$0, 8(%esp)
	movl	$0, 12(%esp)
	movl	$0, (%esp)
	movl	$0, 4(%esp)
	call	__ZNSt11this_thread11__sleep_forENSt6chrono8durationIxSt5ratioILx1ELx1EEEENS1_IxS2_ILx1ELx1000000000EEEE
	subl	$1, 28(%esp)
	jne	L17
	movl	64(%esp), %eax
	movl	$LC3, (%esp)
	movl	%eax, 4(%esp)
	call	_printf
	call	___getreent
	movl	8(%eax), %eax
	movl	%eax, (%esp)
	call	_fflush
	addl	$44, %esp
	.cfi_def_cfa_offset 20
	xorl	%eax, %eax
	popl	%ebx
	.cfi_restore 3
	.cfi_def_cfa_offset 16
	popl	%esi
	.cfi_restore 6
	.cfi_def_cfa_offset 12
	popl	%edi
	.cfi_restore 7
	.cfi_def_cfa_offset 8
	popl	%ebp
	.cfi_restore 5
	.cfi_def_cfa_offset 4
	ret
	.cfi_endproc
LFE2175:
	.section	.text$_ZNSt6thread10_Impl_baseD1Ev,"x"
	.linkonce discard
	.align 2
	.p2align 4,,15
	.globl	__ZNSt6thread10_Impl_baseD1Ev
	.def	__ZNSt6thread10_Impl_baseD1Ev;	.scl	2;	.type	32;	.endef
__ZNSt6thread10_Impl_baseD1Ev:
LFB1828:
	.cfi_startproc
	pushl	%ebx
	.cfi_def_cfa_offset 8
	.cfi_offset 3, -8
	subl	$24, %esp
	.cfi_def_cfa_offset 32
	movl	32(%esp), %eax
	movl	8(%eax), %ebx
	movl	$__ZTVNSt6thread10_Impl_baseE+8, (%eax)
	testl	%ebx, %ebx
	je	L21
	lock subl	$1, 4(%ebx)
	je	L26
L21:
	addl	$24, %esp
	.cfi_remember_state
	.cfi_def_cfa_offset 8
	popl	%ebx
	.cfi_restore 3
	.cfi_def_cfa_offset 4
	ret
	.p2align 4,,7
L26:
	.cfi_restore_state
	movl	(%ebx), %eax
	movl	%ebx, (%esp)
	call	*8(%eax)
	lock subl	$1, 8(%ebx)
	jne	L21
	movl	(%ebx), %eax
	movl	%ebx, 32(%esp)
	movl	12(%eax), %eax
	addl	$24, %esp
	.cfi_def_cfa_offset 8
	popl	%ebx
	.cfi_restore 3
	.cfi_def_cfa_offset 4
	jmp	*%eax
	.cfi_endproc
LFE1828:
	.section	.text$_ZNSt6thread5_ImplISt12_Bind_simpleIFPFjPKcES3_EEED1Ev,"x"
	.linkonce discard
	.align 2
	.p2align 4,,15
	.globl	__ZNSt6thread5_ImplISt12_Bind_simpleIFPFjPKcES3_EEED1Ev
	.def	__ZNSt6thread5_ImplISt12_Bind_simpleIFPFjPKcES3_EEED1Ev;	.scl	2;	.type	32;	.endef
__ZNSt6thread5_ImplISt12_Bind_simpleIFPFjPKcES3_EEED1Ev:
LFB2419:
	.cfi_startproc
	pushl	%ebx
	.cfi_def_cfa_offset 8
	.cfi_offset 3, -8
	subl	$24, %esp
	.cfi_def_cfa_offset 32
	movl	32(%esp), %eax
	movl	8(%eax), %ebx
	movl	$__ZTVNSt6thread10_Impl_baseE+8, (%eax)
	testl	%ebx, %ebx
	je	L27
	lock subl	$1, 4(%ebx)
	je	L32
L27:
	addl	$24, %esp
	.cfi_remember_state
	.cfi_def_cfa_offset 8
	popl	%ebx
	.cfi_restore 3
	.cfi_def_cfa_offset 4
	ret
	.p2align 4,,7
L32:
	.cfi_restore_state
	movl	(%ebx), %eax
	movl	%ebx, (%esp)
	call	*8(%eax)
	lock subl	$1, 8(%ebx)
	jne	L27
	movl	(%ebx), %eax
	movl	%ebx, 32(%esp)
	movl	12(%eax), %eax
	addl	$24, %esp
	.cfi_def_cfa_offset 8
	popl	%ebx
	.cfi_restore 3
	.cfi_def_cfa_offset 4
	jmp	*%eax
	.cfi_endproc
LFE2419:
	.section	.text$_ZNSt6thread10_Impl_baseD0Ev,"x"
	.linkonce discard
	.align 2
	.p2align 4,,15
	.globl	__ZNSt6thread10_Impl_baseD0Ev
	.def	__ZNSt6thread10_Impl_baseD0Ev;	.scl	2;	.type	32;	.endef
__ZNSt6thread10_Impl_baseD0Ev:
LFB1829:
	.cfi_startproc
	pushl	%esi
	.cfi_def_cfa_offset 8
	.cfi_offset 6, -8
	pushl	%ebx
	.cfi_def_cfa_offset 12
	.cfi_offset 3, -12
	subl	$20, %esp
	.cfi_def_cfa_offset 32
	movl	32(%esp), %esi
	movl	8(%esi), %ebx
	movl	$__ZTVNSt6thread10_Impl_baseE+8, (%esi)
	testl	%ebx, %ebx
	je	L35
	lock subl	$1, 4(%ebx)
	je	L38
L35:
	movl	%esi, 32(%esp)
	addl	$20, %esp
	.cfi_remember_state
	.cfi_def_cfa_offset 12
	popl	%ebx
	.cfi_restore 3
	.cfi_def_cfa_offset 8
	popl	%esi
	.cfi_restore 6
	.cfi_def_cfa_offset 4
	jmp	__ZdlPv
	.p2align 4,,7
L38:
	.cfi_restore_state
	movl	(%ebx), %eax
	movl	%ebx, (%esp)
	call	*8(%eax)
	lock subl	$1, 8(%ebx)
	jne	L35
	movl	(%ebx), %eax
	movl	%ebx, (%esp)
	call	*12(%eax)
	.p2align 4,,3
	jmp	L35
	.cfi_endproc
LFE1829:
	.section	.text$_ZNSt6thread5_ImplISt12_Bind_simpleIFPFjPKcES3_EEED0Ev,"x"
	.linkonce discard
	.align 2
	.p2align 4,,15
	.globl	__ZNSt6thread5_ImplISt12_Bind_simpleIFPFjPKcES3_EEED0Ev
	.def	__ZNSt6thread5_ImplISt12_Bind_simpleIFPFjPKcES3_EEED0Ev;	.scl	2;	.type	32;	.endef
__ZNSt6thread5_ImplISt12_Bind_simpleIFPFjPKcES3_EEED0Ev:
LFB2420:
	.cfi_startproc
	pushl	%esi
	.cfi_def_cfa_offset 8
	.cfi_offset 6, -8
	pushl	%ebx
	.cfi_def_cfa_offset 12
	.cfi_offset 3, -12
	subl	$20, %esp
	.cfi_def_cfa_offset 32
	movl	32(%esp), %esi
	movl	8(%esi), %ebx
	movl	$__ZTVNSt6thread10_Impl_baseE+8, (%esi)
	testl	%ebx, %ebx
	je	L41
	lock subl	$1, 4(%ebx)
	je	L44
L41:
	movl	%esi, 32(%esp)
	addl	$20, %esp
	.cfi_remember_state
	.cfi_def_cfa_offset 12
	popl	%ebx
	.cfi_restore 3
	.cfi_def_cfa_offset 8
	popl	%esi
	.cfi_restore 6
	.cfi_def_cfa_offset 4
	jmp	__ZdlPv
	.p2align 4,,7
L44:
	.cfi_restore_state
	movl	(%ebx), %eax
	movl	%ebx, (%esp)
	call	*8(%eax)
	lock subl	$1, 8(%ebx)
	jne	L41
	movl	(%ebx), %eax
	movl	%ebx, (%esp)
	call	*12(%eax)
	.p2align 4,,3
	jmp	L41
	.cfi_endproc
LFE2420:
	.text
	.p2align 4,,15
	.globl	__Z4lockv
	.def	__Z4lockv;	.scl	2;	.type	32;	.endef
__Z4lockv:
LFB2173:
	.cfi_startproc
	movl	$1, %edx
	.p2align 4,,7
L47:
	movl	%edx, %eax
	xchgb	_s_lock, %al
	testb	%al, %al
	jne	L47
	rep ret
	.cfi_endproc
LFE2173:
	.p2align 4,,15
	.globl	__Z6unlockv
	.def	__Z6unlockv;	.scl	2;	.type	32;	.endef
__Z6unlockv:
LFB2174:
	.cfi_startproc
	movb	$0, _s_lock
	mfence
	ret
	.cfi_endproc
LFE2174:
	.section	.text$_ZNSt16_Sp_counted_baseILN9__gnu_cxx12_Lock_policyE2EE10_M_releaseEv,"x"
	.linkonce discard
	.align 2
	.p2align 4,,15
	.globl	__ZNSt16_Sp_counted_baseILN9__gnu_cxx12_Lock_policyE2EE10_M_releaseEv
	.def	__ZNSt16_Sp_counted_baseILN9__gnu_cxx12_Lock_policyE2EE10_M_releaseEv;	.scl	2;	.type	32;	.endef
__ZNSt16_Sp_counted_baseILN9__gnu_cxx12_Lock_policyE2EE10_M_releaseEv:
LFB2252:
	.cfi_startproc
	pushl	%ebx
	.cfi_def_cfa_offset 8
	.cfi_offset 3, -8
	subl	$24, %esp
	.cfi_def_cfa_offset 32
	movl	32(%esp), %ebx
	lock subl	$1, 4(%ebx)
	je	L54
L49:
	addl	$24, %esp
	.cfi_remember_state
	.cfi_def_cfa_offset 8
	popl	%ebx
	.cfi_restore 3
	.cfi_def_cfa_offset 4
	ret
	.p2align 4,,7
L54:
	.cfi_restore_state
	movl	(%ebx), %eax
	movl	%ebx, (%esp)
	call	*8(%eax)
	lock subl	$1, 8(%ebx)
	jne	L49
	movl	(%ebx), %eax
	movl	%ebx, 32(%esp)
	movl	12(%eax), %eax
	addl	$24, %esp
	.cfi_def_cfa_offset 8
	popl	%ebx
	.cfi_restore 3
	.cfi_def_cfa_offset 4
	jmp	*%eax
	.cfi_endproc
LFE2252:
	.section	.text$_ZNSt6threadC1IRFjPKcEIRA7_S1_EEEOT_DpOT0_,"x"
	.linkonce discard
	.align 2
	.p2align 4,,15
	.globl	__ZNSt6threadC1IRFjPKcEIRA7_S1_EEEOT_DpOT0_
	.def	__ZNSt6threadC1IRFjPKcEIRA7_S1_EEEOT_DpOT0_;	.scl	2;	.type	32;	.endef
__ZNSt6threadC1IRFjPKcEIRA7_S1_EEEOT_DpOT0_:
LFB2243:
	.cfi_startproc
	.cfi_personality 0,___gxx_personality_v0
	.cfi_lsda 0,LLSDA2243
	pushl	%esi
	.cfi_def_cfa_offset 8
	.cfi_offset 6, -8
	pushl	%ebx
	.cfi_def_cfa_offset 12
	.cfi_offset 3, -12
	subl	$36, %esp
	.cfi_def_cfa_offset 48
	movl	48(%esp), %esi
	movl	$0, (%esi)
	movl	$36, (%esp)
LEHB0:
	call	__Znwj
LEHE0:
	movl	%eax, %ebx
	xorl	%eax, %eax
	testl	%ebx, %ebx
	je	L56
	leal	16(%ebx), %eax
	movl	%eax, 12(%ebx)
	movl	56(%esp), %eax
	movl	$1, 4(%ebx)
	movl	$1, 8(%ebx)
	movl	$__ZTVSt23_Sp_counted_ptr_inplaceINSt6thread5_ImplISt12_Bind_simpleIFPFjPKcES4_EEEESaIS9_ELN9__gnu_cxx12_Lock_policyE2EE+8, (%ebx)
	movl	%eax, 28(%ebx)
	movl	52(%esp), %eax
	movl	$0, 20(%ebx)
	movl	$0, 24(%ebx)
	movl	$__ZTVNSt6thread5_ImplISt12_Bind_simpleIFPFjPKcES3_EEEE+8, 16(%ebx)
	movl	%eax, 32(%ebx)
	movl	$__ZTISt19_Sp_make_shared_tag, 4(%esp)
	movl	%ebx, (%esp)
	call	__ZNSt23_Sp_counted_ptr_inplaceINSt6thread5_ImplISt12_Bind_simpleIFPFjPKcES4_EEEESaIS9_ELN9__gnu_cxx12_Lock_policyE2EE14_M_get_deleterERKSt9type_info
L56:
	movl	%eax, 16(%esp)
	leal	16(%esp), %eax
	movl	%eax, 4(%esp)
	movl	%esi, (%esp)
	movl	%ebx, 20(%esp)
LEHB1:
	call	__ZNSt6thread15_M_start_threadESt10shared_ptrINS_10_Impl_baseEE
LEHE1:
	movl	20(%esp), %ebx
	testl	%ebx, %ebx
	je	L55
	lock subl	$1, 4(%ebx)
	je	L71
L55:
	addl	$36, %esp
	.cfi_remember_state
	.cfi_def_cfa_offset 12
	popl	%ebx
	.cfi_restore 3
	.cfi_def_cfa_offset 8
	popl	%esi
	.cfi_restore 6
	.cfi_def_cfa_offset 4
	ret
	.p2align 4,,7
L71:
	.cfi_restore_state
	movl	(%ebx), %eax
	movl	%ebx, (%esp)
	call	*8(%eax)
	lock subl	$1, 8(%ebx)
	jne	L55
	movl	(%ebx), %eax
	movl	%ebx, (%esp)
	call	*12(%eax)
	.p2align 4,,3
	jmp	L55
L62:
	movl	20(%esp), %edx
	movl	%eax, %ebx
	testl	%edx, %edx
	je	L60
	movl	%edx, (%esp)
	call	__ZNSt16_Sp_counted_baseILN9__gnu_cxx12_Lock_policyE2EE10_M_releaseEv
L60:
	movl	%ebx, (%esp)
LEHB2:
	call	__Unwind_Resume
LEHE2:
	.cfi_endproc
LFE2243:
	.def	___gxx_personality_v0;	.scl	2;	.type	32;	.endef
	.section	.gcc_except_table,"w"
LLSDA2243:
	.byte	0xff
	.byte	0xff
	.byte	0x1
	.uleb128 LLSDACSE2243-LLSDACSB2243
LLSDACSB2243:
	.uleb128 LEHB0-LFB2243
	.uleb128 LEHE0-LEHB0
	.uleb128 0
	.uleb128 0
	.uleb128 LEHB1-LFB2243
	.uleb128 LEHE1-LEHB1
	.uleb128 L62-LFB2243
	.uleb128 0
	.uleb128 LEHB2-LFB2243
	.uleb128 LEHE2-LEHB2
	.uleb128 0
	.uleb128 0
LLSDACSE2243:
	.section	.text$_ZNSt6threadC1IRFjPKcEIRA7_S1_EEEOT_DpOT0_,"x"
	.linkonce discard
	.weak	__ZNSt6threadC1IRFjPKcEJRA7_S1_EEEOT_DpOT0_
	.def	__ZNSt6threadC1IRFjPKcEJRA7_S1_EEEOT_DpOT0_;	.scl	2;	.type	32;	.endef
	.set	__ZNSt6threadC1IRFjPKcEJRA7_S1_EEEOT_DpOT0_,__ZNSt6threadC1IRFjPKcEIRA7_S1_EEEOT_DpOT0_
	.def	___main;	.scl	2;	.type	32;	.endef
	.section .rdata,"dr"
LC4:
	.ascii "\345\244\252\351\203\216\0"
LC5:
	.ascii "\346\254\241\351\203\216\0"
LC6:
	.ascii "\344\270\211\351\203\216\0"
LC8:
	.ascii "Assembler * %d = %.6f sec\12\0"
	.section	.text.startup,"x"
	.p2align 4,,15
	.globl	_main
	.def	_main;	.scl	2;	.type	32;	.endef
_main:
LFB2179:
	.cfi_startproc
	.cfi_personality 0,___gxx_personality_v0
	.cfi_lsda 0,LLSDA2179
	pushl	%ebp
	.cfi_def_cfa_offset 8
	.cfi_offset 5, -8
	movl	%esp, %ebp
	.cfi_def_cfa_register 5
	pushl	%esi
	pushl	%ebx
	andl	$-16, %esp
	subl	$48, %esp
	.cfi_offset 6, -12
	.cfi_offset 3, -16
	call	___main
	movb	$0, _s_lock
	mfence
	movl	$4, (%esp)
LEHB3:
	call	__Znwj
LEHE3:
	movl	$LC4, 8(%esp)
	movl	$__Z10threadFuncPKc, 4(%esp)
	movl	%eax, (%esp)
	movl	%eax, %ebx
LEHB4:
	call	__ZNSt6threadC1IRFjPKcEIRA7_S1_EEEOT_DpOT0_
LEHE4:
	movl	$4, (%esp)
	movl	%ebx, 32(%esp)
LEHB5:
	call	__Znwj
LEHE5:
	movl	$LC5, 8(%esp)
	movl	$__Z10threadFuncPKc, 4(%esp)
	movl	%eax, (%esp)
	movl	%eax, %ebx
LEHB6:
	call	__ZNSt6threadC1IRFjPKcEIRA7_S1_EEEOT_DpOT0_
LEHE6:
	movl	$4, (%esp)
	movl	%ebx, 36(%esp)
LEHB7:
	call	__Znwj
LEHE7:
	movl	$LC6, 8(%esp)
	movl	$__Z10threadFuncPKc, 4(%esp)
	movl	%eax, (%esp)
	movl	%eax, %ebx
LEHB8:
	call	__ZNSt6threadC1IRFjPKcEIRA7_S1_EEEOT_DpOT0_
LEHE8:
	movl	32(%esp), %eax
	movl	%ebx, 40(%esp)
	movl	%eax, (%esp)
LEHB9:
	call	__ZNSt6thread4joinEv
	movl	36(%esp), %eax
	movl	%eax, (%esp)
	call	__ZNSt6thread4joinEv
	movl	40(%esp), %eax
	movl	%eax, (%esp)
	call	__ZNSt6thread4joinEv
	call	__ZNSt6chrono3_V212system_clock3nowEv
	movl	$10000000, %ecx
	movl	%edx, %esi
	movl	%eax, %ebx
	movl	$1, %edx
	.p2align 4,,7
L74:
	movl	%edx, %eax
	xchgb	_s_lock, %al
	testb	%al, %al
	jne	L74
	movb	$0, _s_lock
	subl	$1, %ecx
	mfence
	jne	L74
	call	__ZNSt6chrono3_V212system_clock3nowEv
	movl	$10000000, 4(%esp)
	movl	$LC8, (%esp)
	subl	%ebx, %eax
	sbbl	%esi, %edx
	movl	%eax, 24(%esp)
	movl	%edx, 28(%esp)
	fildq	24(%esp)
	fdivs	LC7
	fstpl	8(%esp)
	call	_printf
	leal	-8(%ebp), %esp
	xorl	%eax, %eax
	popl	%ebx
	.cfi_remember_state
	.cfi_restore 3
	popl	%esi
	.cfi_restore 6
	popl	%ebp
	.cfi_restore 5
	.cfi_def_cfa 4, 4
	ret
L80:
	.cfi_restore_state
L86:
	movl	%eax, %esi
	movl	%ebx, (%esp)
	call	__ZdlPv
	movl	%esi, (%esp)
	call	__Unwind_Resume
LEHE9:
L81:
	jmp	L86
L82:
	.p2align 4,,5
	jmp	L86
	.cfi_endproc
LFE2179:
	.section	.gcc_except_table,"w"
LLSDA2179:
	.byte	0xff
	.byte	0xff
	.byte	0x1
	.uleb128 LLSDACSE2179-LLSDACSB2179
LLSDACSB2179:
	.uleb128 LEHB3-LFB2179
	.uleb128 LEHE3-LEHB3
	.uleb128 0
	.uleb128 0
	.uleb128 LEHB4-LFB2179
	.uleb128 LEHE4-LEHB4
	.uleb128 L80-LFB2179
	.uleb128 0
	.uleb128 LEHB5-LFB2179
	.uleb128 LEHE5-LEHB5
	.uleb128 0
	.uleb128 0
	.uleb128 LEHB6-LFB2179
	.uleb128 LEHE6-LEHB6
	.uleb128 L81-LFB2179
	.uleb128 0
	.uleb128 LEHB7-LFB2179
	.uleb128 LEHE7-LEHB7
	.uleb128 0
	.uleb128 0
	.uleb128 LEHB8-LFB2179
	.uleb128 LEHE8-LEHB8
	.uleb128 L82-LFB2179
	.uleb128 0
	.uleb128 LEHB9-LFB2179
	.uleb128 LEHE9-LEHB9
	.uleb128 0
	.uleb128 0
LLSDACSE2179:
	.section	.text.startup,"x"
	.globl	___emutls_v.s_tlsData
	.data
	.align 4
___emutls_v.s_tlsData:
	.long	4
	.long	4
	.long	0
	.long	___emutls_t.s_tlsData
	.section .rdata,"dr"
	.align 4
___emutls_t.s_tlsData:
	.space 4
	.globl	__ZTISt11_Mutex_baseILN9__gnu_cxx12_Lock_policyE2EE
	.section	.rdata$_ZTISt11_Mutex_baseILN9__gnu_cxx12_Lock_policyE2EE,"dr"
	.linkonce same_size
	.align 4
__ZTISt11_Mutex_baseILN9__gnu_cxx12_Lock_policyE2EE:
	.long	__ZTVN10__cxxabiv117__class_type_infoE+8
	.long	__ZTSSt11_Mutex_baseILN9__gnu_cxx12_Lock_policyE2EE
	.globl	__ZTSSt11_Mutex_baseILN9__gnu_cxx12_Lock_policyE2EE
	.section	.rdata$_ZTSSt11_Mutex_baseILN9__gnu_cxx12_Lock_policyE2EE,"dr"
	.linkonce same_size
	.align 32
__ZTSSt11_Mutex_baseILN9__gnu_cxx12_Lock_policyE2EE:
	.ascii "St11_Mutex_baseILN9__gnu_cxx12_Lock_policyE2EE\0"
	.globl	__ZTISt16_Sp_counted_baseILN9__gnu_cxx12_Lock_policyE2EE
	.section	.rdata$_ZTISt16_Sp_counted_baseILN9__gnu_cxx12_Lock_policyE2EE,"dr"
	.linkonce same_size
	.align 4
__ZTISt16_Sp_counted_baseILN9__gnu_cxx12_Lock_policyE2EE:
	.long	__ZTVN10__cxxabiv120__si_class_type_infoE+8
	.long	__ZTSSt16_Sp_counted_baseILN9__gnu_cxx12_Lock_policyE2EE
	.long	__ZTISt11_Mutex_baseILN9__gnu_cxx12_Lock_policyE2EE
	.globl	__ZTSSt16_Sp_counted_baseILN9__gnu_cxx12_Lock_policyE2EE
	.section	.rdata$_ZTSSt16_Sp_counted_baseILN9__gnu_cxx12_Lock_policyE2EE,"dr"
	.linkonce same_size
	.align 32
__ZTSSt16_Sp_counted_baseILN9__gnu_cxx12_Lock_policyE2EE:
	.ascii "St16_Sp_counted_baseILN9__gnu_cxx12_Lock_policyE2EE\0"
	.globl	__ZTINSt6thread10_Impl_baseE
	.section	.rdata$_ZTINSt6thread10_Impl_baseE,"dr"
	.linkonce same_size
	.align 4
__ZTINSt6thread10_Impl_baseE:
	.long	__ZTVN10__cxxabiv117__class_type_infoE+8
	.long	__ZTSNSt6thread10_Impl_baseE
	.globl	__ZTSNSt6thread10_Impl_baseE
	.section	.rdata$_ZTSNSt6thread10_Impl_baseE,"dr"
	.linkonce same_size
__ZTSNSt6thread10_Impl_baseE:
	.ascii "NSt6thread10_Impl_baseE\0"
	.globl	__ZTINSt6thread5_ImplISt12_Bind_simpleIFPFjPKcES3_EEEE
	.section	.rdata$_ZTINSt6thread5_ImplISt12_Bind_simpleIFPFjPKcES3_EEEE,"dr"
	.linkonce same_size
	.align 4
__ZTINSt6thread5_ImplISt12_Bind_simpleIFPFjPKcES3_EEEE:
	.long	__ZTVN10__cxxabiv120__si_class_type_infoE+8
	.long	__ZTSNSt6thread5_ImplISt12_Bind_simpleIFPFjPKcES3_EEEE
	.long	__ZTINSt6thread10_Impl_baseE
	.globl	__ZTSNSt6thread5_ImplISt12_Bind_simpleIFPFjPKcES3_EEEE
	.section	.rdata$_ZTSNSt6thread5_ImplISt12_Bind_simpleIFPFjPKcES3_EEEE,"dr"
	.linkonce same_size
	.align 32
__ZTSNSt6thread5_ImplISt12_Bind_simpleIFPFjPKcES3_EEEE:
	.ascii "NSt6thread5_ImplISt12_Bind_simpleIFPFjPKcES3_EEEE\0"
	.globl	__ZTISt19_Sp_make_shared_tag
	.section	.rdata$_ZTISt19_Sp_make_shared_tag,"dr"
	.linkonce same_size
	.align 4
__ZTISt19_Sp_make_shared_tag:
	.long	__ZTVN10__cxxabiv117__class_type_infoE+8
	.long	__ZTSSt19_Sp_make_shared_tag
	.globl	__ZTSSt19_Sp_make_shared_tag
	.section	.rdata$_ZTSSt19_Sp_make_shared_tag,"dr"
	.linkonce same_size
__ZTSSt19_Sp_make_shared_tag:
	.ascii "St19_Sp_make_shared_tag\0"
	.globl	__ZTISt23_Sp_counted_ptr_inplaceINSt6thread5_ImplISt12_Bind_simpleIFPFjPKcES4_EEEESaIS9_ELN9__gnu_cxx12_Lock_policyE2EE
	.section	.rdata$_ZTISt23_Sp_counted_ptr_inplaceINSt6thread5_ImplISt12_Bind_simpleIFPFjPKcES4_EEEESaIS9_ELN9__gnu_cxx12_Lock_policyE2EE,"dr"
	.linkonce same_size
	.align 4
__ZTISt23_Sp_counted_ptr_inplaceINSt6thread5_ImplISt12_Bind_simpleIFPFjPKcES4_EEEESaIS9_ELN9__gnu_cxx12_Lock_policyE2EE:
	.long	__ZTVN10__cxxabiv120__si_class_type_infoE+8
	.long	__ZTSSt23_Sp_counted_ptr_inplaceINSt6thread5_ImplISt12_Bind_simpleIFPFjPKcES4_EEEESaIS9_ELN9__gnu_cxx12_Lock_policyE2EE
	.long	__ZTISt16_Sp_counted_baseILN9__gnu_cxx12_Lock_policyE2EE
	.globl	__ZTSSt23_Sp_counted_ptr_inplaceINSt6thread5_ImplISt12_Bind_simpleIFPFjPKcES4_EEEESaIS9_ELN9__gnu_cxx12_Lock_policyE2EE
	.section	.rdata$_ZTSSt23_Sp_counted_ptr_inplaceINSt6thread5_ImplISt12_Bind_simpleIFPFjPKcES4_EEEESaIS9_ELN9__gnu_cxx12_Lock_policyE2EE,"dr"
	.linkonce same_size
	.align 32
__ZTSSt23_Sp_counted_ptr_inplaceINSt6thread5_ImplISt12_Bind_simpleIFPFjPKcES4_EEEESaIS9_ELN9__gnu_cxx12_Lock_policyE2EE:
	.ascii "St23_Sp_counted_ptr_inplaceINSt6thread5_ImplISt12_Bind_simpleIFPFjPKcES4_EEEESaIS9_ELN9__gnu_cxx12_Lock_policyE2EE\0"
	.globl	__ZTVSt16_Sp_counted_baseILN9__gnu_cxx12_Lock_policyE2EE
	.section	.rdata$_ZTVSt16_Sp_counted_baseILN9__gnu_cxx12_Lock_policyE2EE,"dr"
	.linkonce same_size
	.align 8
__ZTVSt16_Sp_counted_baseILN9__gnu_cxx12_Lock_policyE2EE:
	.long	0
	.long	__ZTISt16_Sp_counted_baseILN9__gnu_cxx12_Lock_policyE2EE
	.long	__ZNSt16_Sp_counted_baseILN9__gnu_cxx12_Lock_policyE2EED1Ev
	.long	__ZNSt16_Sp_counted_baseILN9__gnu_cxx12_Lock_policyE2EED0Ev
	.long	___cxa_pure_virtual
	.long	__ZNSt16_Sp_counted_baseILN9__gnu_cxx12_Lock_policyE2EE10_M_destroyEv
	.long	___cxa_pure_virtual
	.globl	__ZTVNSt6thread10_Impl_baseE
	.section	.rdata$_ZTVNSt6thread10_Impl_baseE,"dr"
	.linkonce same_size
	.align 8
__ZTVNSt6thread10_Impl_baseE:
	.long	0
	.long	__ZTINSt6thread10_Impl_baseE
	.long	__ZNSt6thread10_Impl_baseD1Ev
	.long	__ZNSt6thread10_Impl_baseD0Ev
	.long	___cxa_pure_virtual
	.globl	__ZTVNSt6thread5_ImplISt12_Bind_simpleIFPFjPKcES3_EEEE
	.section	.rdata$_ZTVNSt6thread5_ImplISt12_Bind_simpleIFPFjPKcES3_EEEE,"dr"
	.linkonce same_size
	.align 8
__ZTVNSt6thread5_ImplISt12_Bind_simpleIFPFjPKcES3_EEEE:
	.long	0
	.long	__ZTINSt6thread5_ImplISt12_Bind_simpleIFPFjPKcES3_EEEE
	.long	__ZNSt6thread5_ImplISt12_Bind_simpleIFPFjPKcES3_EEED1Ev
	.long	__ZNSt6thread5_ImplISt12_Bind_simpleIFPFjPKcES3_EEED0Ev
	.long	__ZNSt6thread5_ImplISt12_Bind_simpleIFPFjPKcES3_EEE6_M_runEv
	.globl	__ZTVSt23_Sp_counted_ptr_inplaceINSt6thread5_ImplISt12_Bind_simpleIFPFjPKcES4_EEEESaIS9_ELN9__gnu_cxx12_Lock_policyE2EE
	.section	.rdata$_ZTVSt23_Sp_counted_ptr_inplaceINSt6thread5_ImplISt12_Bind_simpleIFPFjPKcES4_EEEESaIS9_ELN9__gnu_cxx12_Lock_policyE2EE,"dr"
	.linkonce same_size
	.align 8
__ZTVSt23_Sp_counted_ptr_inplaceINSt6thread5_ImplISt12_Bind_simpleIFPFjPKcES4_EEEESaIS9_ELN9__gnu_cxx12_Lock_policyE2EE:
	.long	0
	.long	__ZTISt23_Sp_counted_ptr_inplaceINSt6thread5_ImplISt12_Bind_simpleIFPFjPKcES4_EEEESaIS9_ELN9__gnu_cxx12_Lock_policyE2EE
	.long	__ZNSt23_Sp_counted_ptr_inplaceINSt6thread5_ImplISt12_Bind_simpleIFPFjPKcES4_EEEESaIS9_ELN9__gnu_cxx12_Lock_policyE2EED1Ev
	.long	__ZNSt23_Sp_counted_ptr_inplaceINSt6thread5_ImplISt12_Bind_simpleIFPFjPKcES4_EEEESaIS9_ELN9__gnu_cxx12_Lock_policyE2EED0Ev
	.long	__ZNSt23_Sp_counted_ptr_inplaceINSt6thread5_ImplISt12_Bind_simpleIFPFjPKcES4_EEEESaIS9_ELN9__gnu_cxx12_Lock_policyE2EE10_M_disposeEv
	.long	__ZNSt23_Sp_counted_ptr_inplaceINSt6thread5_ImplISt12_Bind_simpleIFPFjPKcES4_EEEESaIS9_ELN9__gnu_cxx12_Lock_policyE2EE10_M_destroyEv
	.long	__ZNSt23_Sp_counted_ptr_inplaceINSt6thread5_ImplISt12_Bind_simpleIFPFjPKcES4_EEEESaIS9_ELN9__gnu_cxx12_Lock_policyE2EE14_M_get_deleterERKSt9type_info
.lcomm __ZL12s_commonData,4,16
	.globl	_s_lock
	.bss
_s_lock:
	.space 1
	.section .rdata,"dr"
	.align 4
LC7:
	.long	1315859240
	.ident	"GCC: (GNU) 4.8.2"
	.def	___real__ZdlPv;	.scl	2;	.type	32;	.endef
	.def	__ZdlPv;	.scl	2;	.type	32;	.endef
	.def	__ZNKSt9type_infoeqERKS_;	.scl	2;	.type	32;	.endef
	.def	_printf;	.scl	2;	.type	32;	.endef
	.def	___getreent;	.scl	2;	.type	32;	.endef
	.def	_fflush;	.scl	2;	.type	32;	.endef
	.def	___emutls_get_address;	.scl	2;	.type	32;	.endef
	.def	_rand;	.scl	2;	.type	32;	.endef
	.def	__ZNSt11this_thread11__sleep_forENSt6chrono8durationIxSt5ratioILx1ELx1EEEENS1_IxS2_ILx1ELx1000000000EEEE;	.scl	2;	.type	32;	.endef
	.def	___real__Znwj;	.scl	2;	.type	32;	.endef
	.def	__Znwj;	.scl	2;	.type	32;	.endef
	.def	__ZNSt6thread15_M_start_threadESt10shared_ptrINS_10_Impl_baseEE;	.scl	2;	.type	32;	.endef
	.def	__Unwind_Resume;	.scl	2;	.type	32;	.endef
	.def	__ZNSt6thread4joinEv;	.scl	2;	.type	32;	.endef
	.def	__ZNSt6chrono3_V212system_clock3nowEv;	.scl	2;	.type	32;	.endef
	.def	___cxa_pure_virtual;	.scl	2;	.type	32;	.endef
