	.file	"allocator.cpp"
	.section	.text$_ZnwjPv,"x"
	.linkonce discard
	.globl	__ZnwjPv
	.def	__ZnwjPv;	.scl	2;	.type	32;	.endef
__ZnwjPv:
LFB41:
	.cfi_startproc
	pushl	%ebp
	.cfi_def_cfa_offset 8
	.cfi_offset 5, -8
	movl	%esp, %ebp
	.cfi_def_cfa_register 5
	movl	12(%ebp), %eax
	popl	%ebp
	.cfi_restore 5
	.cfi_def_cfa 4, 4
	ret
	.cfi_endproc
LFE41:
	.section	.text$_ZdlPvS_,"x"
	.linkonce discard
	.globl	__ZdlPvS_
	.def	__ZdlPvS_;	.scl	2;	.type	32;	.endef
__ZdlPvS_:
LFB43:
	.cfi_startproc
	pushl	%ebp
	.cfi_def_cfa_offset 8
	.cfi_offset 5, -8
	movl	%esp, %ebp
	.cfi_def_cfa_register 5
	popl	%ebp
	.cfi_restore 5
	.cfi_def_cfa 4, 4
	ret
	.cfi_endproc
LFE43:
	.section	.text$_ZNKSt9type_info4nameEv,"x"
	.linkonce discard
	.align 2
	.globl	__ZNKSt9type_info4nameEv
	.def	__ZNKSt9type_info4nameEv;	.scl	2;	.type	32;	.endef
__ZNKSt9type_info4nameEv:
LFB45:
	.cfi_startproc
	pushl	%ebp
	.cfi_def_cfa_offset 8
	.cfi_offset 5, -8
	movl	%esp, %ebp
	.cfi_def_cfa_register 5
	movl	8(%ebp), %eax
	movl	4(%eax), %eax
	movzbl	(%eax), %eax
	cmpb	$42, %al
	jne	L5
	movl	8(%ebp), %eax
	movl	4(%eax), %eax
	addl	$1, %eax
	jmp	L6
L5:
	movl	8(%ebp), %eax
	movl	4(%eax), %eax
L6:
	popl	%ebp
	.cfi_restore 5
	.cfi_def_cfa 4, 4
	ret
	.cfi_endproc
LFE45:
	.section .rdata,"dr"
	.align 4
LC0:
	.ascii "CTest0::Constructor : name=\"%s\"\12\0"
	.section	.text$_ZN6CTest0C1EPKc,"x"
	.linkonce discard
	.align 2
	.globl	__ZN6CTest0C1EPKc
	.def	__ZN6CTest0C1EPKc;	.scl	2;	.type	32;	.endef
__ZN6CTest0C1EPKc:
LFB61:
	.cfi_startproc
	pushl	%ebp
	.cfi_def_cfa_offset 8
	.cfi_offset 5, -8
	movl	%esp, %ebp
	.cfi_def_cfa_register 5
	subl	$24, %esp
	movl	8(%ebp), %eax
	movl	12(%ebp), %edx
	movl	%edx, (%eax)
	movl	8(%ebp), %eax
	movl	(%eax), %eax
	movl	%eax, 4(%esp)
	movl	$LC0, (%esp)
	call	_printf
	leave
	.cfi_restore 5
	.cfi_def_cfa 4, 4
	ret
	.cfi_endproc
LFE61:
	.section .rdata,"dr"
	.align 4
LC1:
	.ascii "CTest0::Destructor : name=\"%s\"\12\0"
	.section	.text$_ZN6CTest0D1Ev,"x"
	.linkonce discard
	.align 2
	.globl	__ZN6CTest0D1Ev
	.def	__ZN6CTest0D1Ev;	.scl	2;	.type	32;	.endef
__ZN6CTest0D1Ev:
LFB64:
	.cfi_startproc
	.cfi_personality 0,___gxx_personality_v0
	.cfi_lsda 0,LLSDA64
	pushl	%ebp
	.cfi_def_cfa_offset 8
	.cfi_offset 5, -8
	movl	%esp, %ebp
	.cfi_def_cfa_register 5
	subl	$24, %esp
	movl	8(%ebp), %eax
	movl	(%eax), %eax
	movl	%eax, 4(%esp)
	movl	$LC1, (%esp)
	call	_printf
	leave
	.cfi_restore 5
	.cfi_def_cfa 4, 4
	ret
	.cfi_endproc
LFE64:
	.def	___gxx_personality_v0;	.scl	2;	.type	32;	.endef
	.section	.gcc_except_table,"w"
LLSDA64:
	.byte	0xff
	.byte	0xff
	.byte	0x1
	.uleb128 LLSDACSE64-LLSDACSB64
LLSDACSB64:
LLSDACSE64:
	.section	.text$_ZN6CTest0D1Ev,"x"
	.linkonce discard
	.section .rdata,"dr"
	.align 4
LC2:
	.ascii "---------- test0:\345\233\272\345\256\232\343\203\220\343\203\203\343\203\225\343\202\241\351\205\215\347\275\256new/\351\205\215\347\275\256delete ----------\0"
LC3:
	.ascii "buff=0x%p\12\0"
LC4:
	.ascii "\343\203\206\343\202\271\343\203\210"
	.ascii "0\0"
LC5:
	.ascii "obj_p=0x%p\12\0"
	.text
	.globl	__Z5test0v
	.def	__Z5test0v;	.scl	2;	.type	32;	.endef
__Z5test0v:
LFB65:
	.cfi_startproc
	.cfi_personality 0,___gxx_personality_v0
	.cfi_lsda 0,LLSDA65
	pushl	%ebp
	.cfi_def_cfa_offset 8
	.cfi_offset 5, -8
	movl	%esp, %ebp
	.cfi_def_cfa_register 5
	subl	$72, %esp
	movl	$LC2, (%esp)
LEHB0:
	call	_puts
	leal	-44(%ebp), %eax
	movl	%eax, 4(%esp)
	movl	$LC3, (%esp)
	call	_printf
	movl	$LC4, 4(%esp)
	leal	-44(%ebp), %eax
	movl	%eax, (%esp)
	call	__Z7new_ptrI6CTest0IPKcEEPT_PcDpT0_
	movl	%eax, -12(%ebp)
	movl	-12(%ebp), %eax
	movl	%eax, 4(%esp)
	movl	$LC5, (%esp)
	call	_printf
	leal	-44(%ebp), %eax
	movl	%eax, 4(%esp)
	leal	-12(%ebp), %eax
	movl	%eax, (%esp)
	call	__Z10delete_ptrI6CTest0EvRPT_Pc
	movl	-12(%ebp), %eax
	movl	%eax, 4(%esp)
	movl	$LC5, (%esp)
	call	_printf
LEHE0:
	jmp	L14
L13:
	movl	%eax, (%esp)
LEHB1:
	call	__Unwind_Resume
LEHE1:
L14:
	leave
	.cfi_restore 5
	.cfi_def_cfa 4, 4
	ret
	.cfi_endproc
LFE65:
	.section	.gcc_except_table,"w"
LLSDA65:
	.byte	0xff
	.byte	0xff
	.byte	0x1
	.uleb128 LLSDACSE65-LLSDACSB65
LLSDACSB65:
	.uleb128 LEHB0-LFB65
	.uleb128 LEHE0-LEHB0
	.uleb128 L13-LFB65
	.uleb128 0
	.uleb128 LEHB1-LFB65
	.uleb128 LEHE1-LEHB1
	.uleb128 0
	.uleb128 0
LLSDACSE65:
	.text
	.section .rdata,"dr"
	.align 4
LC6:
	.ascii "placement new(size=%d, where=0x%p)\12\0"
	.text
	.globl	__ZnwjPc
	.def	__ZnwjPc;	.scl	2;	.type	32;	.endef
__ZnwjPc:
LFB66:
	.cfi_startproc
	.cfi_personality 0,___gxx_personality_v0
	.cfi_lsda 0,LLSDA66
	pushl	%ebp
	.cfi_def_cfa_offset 8
	.cfi_offset 5, -8
	movl	%esp, %ebp
	.cfi_def_cfa_register 5
	subl	$24, %esp
	movl	12(%ebp), %eax
	movl	%eax, 8(%esp)
	movl	8(%ebp), %eax
	movl	%eax, 4(%esp)
	movl	$LC6, (%esp)
LEHB2:
	call	_printf
LEHE2:
	movl	12(%ebp), %eax
	jmp	L20
L19:
	cmpl	$-1, %edx
	je	L18
	movl	%eax, (%esp)
LEHB3:
	call	__Unwind_Resume
L18:
	movl	%eax, (%esp)
	call	___cxa_call_unexpected
LEHE3:
L20:
	leave
	.cfi_restore 5
	.cfi_def_cfa 4, 4
	ret
	.cfi_endproc
LFE66:
	.section	.gcc_except_table,"w"
	.align 4
LLSDA66:
	.byte	0xff
	.byte	0
	.uleb128 LLSDATT66-LLSDATTD66
LLSDATTD66:
	.byte	0x1
	.uleb128 LLSDACSE66-LLSDACSB66
LLSDACSB66:
	.uleb128 LEHB2-LFB66
	.uleb128 LEHE2-LEHB2
	.uleb128 L19-LFB66
	.uleb128 0x1
	.uleb128 LEHB3-LFB66
	.uleb128 LEHE3-LEHB3
	.uleb128 0
	.uleb128 0
LLSDACSE66:
	.byte	0x7f
	.byte	0
	.align 4
LLSDATT66:
	.byte	0
	.text
	.section .rdata,"dr"
	.align 4
LC7:
	.ascii "placement new[](size=%d, where=0x%p)\12\0"
	.text
	.globl	__ZnajPc
	.def	__ZnajPc;	.scl	2;	.type	32;	.endef
__ZnajPc:
LFB67:
	.cfi_startproc
	.cfi_personality 0,___gxx_personality_v0
	.cfi_lsda 0,LLSDA67
	pushl	%ebp
	.cfi_def_cfa_offset 8
	.cfi_offset 5, -8
	movl	%esp, %ebp
	.cfi_def_cfa_register 5
	subl	$24, %esp
	movl	12(%ebp), %eax
	movl	%eax, 8(%esp)
	movl	8(%ebp), %eax
	movl	%eax, 4(%esp)
	movl	$LC7, (%esp)
LEHB4:
	call	_printf
LEHE4:
	movl	12(%ebp), %eax
	jmp	L26
L25:
	cmpl	$-1, %edx
	je	L24
	movl	%eax, (%esp)
LEHB5:
	call	__Unwind_Resume
L24:
	movl	%eax, (%esp)
	call	___cxa_call_unexpected
LEHE5:
L26:
	leave
	.cfi_restore 5
	.cfi_def_cfa 4, 4
	ret
	.cfi_endproc
LFE67:
	.section	.gcc_except_table,"w"
	.align 4
LLSDA67:
	.byte	0xff
	.byte	0
	.uleb128 LLSDATT67-LLSDATTD67
LLSDATTD67:
	.byte	0x1
	.uleb128 LLSDACSE67-LLSDACSB67
LLSDACSB67:
	.uleb128 LEHB4-LFB67
	.uleb128 LEHE4-LEHB4
	.uleb128 L25-LFB67
	.uleb128 0x1
	.uleb128 LEHB5-LFB67
	.uleb128 LEHE5-LEHB5
	.uleb128 0
	.uleb128 0
LLSDACSE67:
	.byte	0x7f
	.byte	0
	.align 4
LLSDATT67:
	.byte	0
	.text
	.section .rdata,"dr"
	.align 4
LC8:
	.ascii "placement delete(p=0x%p, where=0x%p)\12\0"
	.text
	.globl	__ZdlPvPc
	.def	__ZdlPvPc;	.scl	2;	.type	32;	.endef
__ZdlPvPc:
LFB68:
	.cfi_startproc
	.cfi_personality 0,___gxx_personality_v0
	.cfi_lsda 0,LLSDA68
	pushl	%ebp
	.cfi_def_cfa_offset 8
	.cfi_offset 5, -8
	movl	%esp, %ebp
	.cfi_def_cfa_register 5
	subl	$24, %esp
	movl	12(%ebp), %eax
	movl	%eax, 8(%esp)
	movl	8(%ebp), %eax
	movl	%eax, 4(%esp)
	movl	$LC8, (%esp)
LEHB6:
	call	_printf
LEHE6:
	jmp	L31
L30:
	cmpl	$-1, %edx
	je	L29
	movl	%eax, (%esp)
LEHB7:
	call	__Unwind_Resume
L29:
	movl	%eax, (%esp)
	call	___cxa_call_unexpected
LEHE7:
L31:
	leave
	.cfi_restore 5
	.cfi_def_cfa 4, 4
	ret
	.cfi_endproc
LFE68:
	.section	.gcc_except_table,"w"
	.align 4
LLSDA68:
	.byte	0xff
	.byte	0
	.uleb128 LLSDATT68-LLSDATTD68
LLSDATTD68:
	.byte	0x1
	.uleb128 LLSDACSE68-LLSDACSB68
LLSDACSB68:
	.uleb128 LEHB6-LFB68
	.uleb128 LEHE6-LEHB6
	.uleb128 L30-LFB68
	.uleb128 0x1
	.uleb128 LEHB7-LFB68
	.uleb128 LEHE7-LEHB7
	.uleb128 0
	.uleb128 0
LLSDACSE68:
	.byte	0x7f
	.byte	0
	.align 4
LLSDATT68:
	.byte	0
	.text
	.section .rdata,"dr"
	.align 4
LC9:
	.ascii "placement delete[](p=0x%p, where=0x%p)\12\0"
	.text
	.globl	__ZdaPvPc
	.def	__ZdaPvPc;	.scl	2;	.type	32;	.endef
__ZdaPvPc:
LFB69:
	.cfi_startproc
	.cfi_personality 0,___gxx_personality_v0
	.cfi_lsda 0,LLSDA69
	pushl	%ebp
	.cfi_def_cfa_offset 8
	.cfi_offset 5, -8
	movl	%esp, %ebp
	.cfi_def_cfa_register 5
	subl	$24, %esp
	movl	12(%ebp), %eax
	movl	%eax, 8(%esp)
	movl	8(%ebp), %eax
	movl	%eax, 4(%esp)
	movl	$LC9, (%esp)
LEHB8:
	call	_printf
LEHE8:
	jmp	L36
L35:
	cmpl	$-1, %edx
	je	L34
	movl	%eax, (%esp)
LEHB9:
	call	__Unwind_Resume
L34:
	movl	%eax, (%esp)
	call	___cxa_call_unexpected
LEHE9:
L36:
	leave
	.cfi_restore 5
	.cfi_def_cfa 4, 4
	ret
	.cfi_endproc
LFE69:
	.section	.gcc_except_table,"w"
	.align 4
LLSDA69:
	.byte	0xff
	.byte	0
	.uleb128 LLSDATT69-LLSDATTD69
LLSDATTD69:
	.byte	0x1
	.uleb128 LLSDACSE69-LLSDACSB69
LLSDACSB69:
	.uleb128 LEHB8-LFB69
	.uleb128 LEHE8-LEHB8
	.uleb128 L35-LFB69
	.uleb128 0x1
	.uleb128 LEHB9-LFB69
	.uleb128 LEHE9-LEHB9
	.uleb128 0
	.uleb128 0
LLSDACSE69:
	.byte	0x7f
	.byte	0
	.align 4
LLSDATT69:
	.byte	0
	.text
	.section .rdata,"dr"
LC10:
	.ascii "(default)\0"
	.align 4
LC11:
	.ascii "CTest1::DefaultConstructor : name=\"%s\"\12\0"
	.section	.text$_ZN6CTest1C1Ev,"x"
	.linkonce discard
	.align 2
	.globl	__ZN6CTest1C1Ev
	.def	__ZN6CTest1C1Ev;	.scl	2;	.type	32;	.endef
__ZN6CTest1C1Ev:
LFB74:
	.cfi_startproc
	.cfi_personality 0,___gxx_personality_v0
	.cfi_lsda 0,LLSDA74
	pushl	%ebp
	.cfi_def_cfa_offset 8
	.cfi_offset 5, -8
	movl	%esp, %ebp
	.cfi_def_cfa_register 5
	pushl	%ebx
	subl	$20, %esp
	.cfi_offset 3, -12
	movl	$LC10, 4(%esp)
	movl	8(%ebp), %eax
	movl	%eax, (%esp)
LEHB10:
	call	__ZN6CTest1C1EPKc
LEHE10:
	movl	8(%ebp), %eax
	movl	(%eax), %eax
	movl	%eax, 4(%esp)
	movl	$LC11, (%esp)
LEHB11:
	call	_printf
LEHE11:
	jmp	L40
L39:
	movl	%eax, %ebx
	movl	8(%ebp), %eax
	movl	%eax, (%esp)
	call	__ZN6CTest1D1Ev
	movl	%ebx, %eax
	movl	%eax, (%esp)
LEHB12:
	call	__Unwind_Resume
LEHE12:
L40:
	addl	$20, %esp
	popl	%ebx
	.cfi_restore 3
	popl	%ebp
	.cfi_restore 5
	.cfi_def_cfa 4, 4
	ret
	.cfi_endproc
LFE74:
	.section	.gcc_except_table,"w"
LLSDA74:
	.byte	0xff
	.byte	0xff
	.byte	0x1
	.uleb128 LLSDACSE74-LLSDACSB74
LLSDACSB74:
	.uleb128 LEHB10-LFB74
	.uleb128 LEHE10-LEHB10
	.uleb128 0
	.uleb128 0
	.uleb128 LEHB11-LFB74
	.uleb128 LEHE11-LEHB11
	.uleb128 L39-LFB74
	.uleb128 0
	.uleb128 LEHB12-LFB74
	.uleb128 LEHE12-LEHB12
	.uleb128 0
	.uleb128 0
LLSDACSE74:
	.section	.text$_ZN6CTest1C1Ev,"x"
	.linkonce discard
	.section .rdata,"dr"
	.align 4
LC12:
	.ascii "CTest1::Constructor : name=\"%s\"\12\0"
	.section	.text$_ZN6CTest1C2EPKc,"x"
	.linkonce discard
	.align 2
	.globl	__ZN6CTest1C2EPKc
	.def	__ZN6CTest1C2EPKc;	.scl	2;	.type	32;	.endef
__ZN6CTest1C2EPKc:
LFB76:
	.cfi_startproc
	pushl	%ebp
	.cfi_def_cfa_offset 8
	.cfi_offset 5, -8
	movl	%esp, %ebp
	.cfi_def_cfa_register 5
	subl	$24, %esp
	movl	8(%ebp), %eax
	movl	12(%ebp), %edx
	movl	%edx, (%eax)
	movl	8(%ebp), %eax
	movl	(%eax), %eax
	movl	%eax, 4(%esp)
	movl	$LC12, (%esp)
	call	_printf
	leave
	.cfi_restore 5
	.cfi_def_cfa 4, 4
	ret
	.cfi_endproc
LFE76:
	.section	.text$_ZN6CTest1C1EPKc,"x"
	.linkonce discard
	.align 2
	.globl	__ZN6CTest1C1EPKc
	.def	__ZN6CTest1C1EPKc;	.scl	2;	.type	32;	.endef
__ZN6CTest1C1EPKc:
LFB77:
	.cfi_startproc
	pushl	%ebp
	.cfi_def_cfa_offset 8
	.cfi_offset 5, -8
	movl	%esp, %ebp
	.cfi_def_cfa_register 5
	subl	$24, %esp
	movl	8(%ebp), %eax
	movl	12(%ebp), %edx
	movl	%edx, (%eax)
	movl	8(%ebp), %eax
	movl	(%eax), %eax
	movl	%eax, 4(%esp)
	movl	$LC12, (%esp)
	call	_printf
	leave
	.cfi_restore 5
	.cfi_def_cfa 4, 4
	ret
	.cfi_endproc
LFE77:
	.section .rdata,"dr"
	.align 4
LC13:
	.ascii "CTest1::Destructor : name=\"%s\"\12\0"
	.section	.text$_ZN6CTest1D2Ev,"x"
	.linkonce discard
	.align 2
	.globl	__ZN6CTest1D2Ev
	.def	__ZN6CTest1D2Ev;	.scl	2;	.type	32;	.endef
__ZN6CTest1D2Ev:
LFB79:
	.cfi_startproc
	.cfi_personality 0,___gxx_personality_v0
	.cfi_lsda 0,LLSDA79
	pushl	%ebp
	.cfi_def_cfa_offset 8
	.cfi_offset 5, -8
	movl	%esp, %ebp
	.cfi_def_cfa_register 5
	subl	$24, %esp
	movl	8(%ebp), %eax
	movl	(%eax), %eax
	movl	%eax, 4(%esp)
	movl	$LC13, (%esp)
	call	_printf
	leave
	.cfi_restore 5
	.cfi_def_cfa 4, 4
	ret
	.cfi_endproc
LFE79:
	.section	.gcc_except_table,"w"
LLSDA79:
	.byte	0xff
	.byte	0xff
	.byte	0x1
	.uleb128 LLSDACSE79-LLSDACSB79
LLSDACSB79:
LLSDACSE79:
	.section	.text$_ZN6CTest1D2Ev,"x"
	.linkonce discard
	.section	.text$_ZN6CTest1D1Ev,"x"
	.linkonce discard
	.align 2
	.globl	__ZN6CTest1D1Ev
	.def	__ZN6CTest1D1Ev;	.scl	2;	.type	32;	.endef
__ZN6CTest1D1Ev:
LFB80:
	.cfi_startproc
	.cfi_personality 0,___gxx_personality_v0
	.cfi_lsda 0,LLSDA80
	pushl	%ebp
	.cfi_def_cfa_offset 8
	.cfi_offset 5, -8
	movl	%esp, %ebp
	.cfi_def_cfa_register 5
	subl	$24, %esp
	movl	8(%ebp), %eax
	movl	(%eax), %eax
	movl	%eax, 4(%esp)
	movl	$LC13, (%esp)
	call	_printf
	leave
	.cfi_restore 5
	.cfi_def_cfa 4, 4
	ret
	.cfi_endproc
LFE80:
	.section	.gcc_except_table,"w"
LLSDA80:
	.byte	0xff
	.byte	0xff
	.byte	0x1
	.uleb128 LLSDACSE80-LLSDACSB80
LLSDACSB80:
LLSDACSE80:
	.section	.text$_ZN6CTest1D1Ev,"x"
	.linkonce discard
	.section .rdata,"dr"
LC14:
	.ascii "CTest1ex::Constructor\0"
	.section	.text$_ZN8CTest1exC2Ev,"x"
	.linkonce discard
	.align 2
	.globl	__ZN8CTest1exC2Ev
	.def	__ZN8CTest1exC2Ev;	.scl	2;	.type	32;	.endef
__ZN8CTest1exC2Ev:
LFB82:
	.cfi_startproc
	pushl	%ebp
	.cfi_def_cfa_offset 8
	.cfi_offset 5, -8
	movl	%esp, %ebp
	.cfi_def_cfa_register 5
	subl	$24, %esp
	movl	$LC14, (%esp)
	call	_puts
	leave
	.cfi_restore 5
	.cfi_def_cfa 4, 4
	ret
	.cfi_endproc
LFE82:
	.section .rdata,"dr"
LC15:
	.ascii "CTest1ex::Destructor\0"
	.section	.text$_ZN8CTest1exD2Ev,"x"
	.linkonce discard
	.align 2
	.globl	__ZN8CTest1exD2Ev
	.def	__ZN8CTest1exD2Ev;	.scl	2;	.type	32;	.endef
__ZN8CTest1exD2Ev:
LFB85:
	.cfi_startproc
	.cfi_personality 0,___gxx_personality_v0
	.cfi_lsda 0,LLSDA85
	pushl	%ebp
	.cfi_def_cfa_offset 8
	.cfi_offset 5, -8
	movl	%esp, %ebp
	.cfi_def_cfa_register 5
	subl	$24, %esp
	movl	$LC15, (%esp)
	call	_puts
	leave
	.cfi_restore 5
	.cfi_def_cfa 4, 4
	ret
	.cfi_endproc
LFE85:
	.section	.gcc_except_table,"w"
LLSDA85:
	.byte	0xff
	.byte	0xff
	.byte	0x1
	.uleb128 LLSDACSE85-LLSDACSB85
LLSDACSB85:
LLSDACSE85:
	.section	.text$_ZN8CTest1exD2Ev,"x"
	.linkonce discard
	.section	.text$_ZN8CTest1exD1Ev,"x"
	.linkonce discard
	.align 2
	.globl	__ZN8CTest1exD1Ev
	.def	__ZN8CTest1exD1Ev;	.scl	2;	.type	32;	.endef
__ZN8CTest1exD1Ev:
LFB86:
	.cfi_startproc
	.cfi_personality 0,___gxx_personality_v0
	.cfi_lsda 0,LLSDA86
	pushl	%ebp
	.cfi_def_cfa_offset 8
	.cfi_offset 5, -8
	movl	%esp, %ebp
	.cfi_def_cfa_register 5
	subl	$24, %esp
	movl	$LC15, (%esp)
	call	_puts
	leave
	.cfi_restore 5
	.cfi_def_cfa 4, 4
	ret
	.cfi_endproc
LFE86:
	.section	.gcc_except_table,"w"
LLSDA86:
	.byte	0xff
	.byte	0xff
	.byte	0x1
	.uleb128 LLSDACSE86-LLSDACSB86
LLSDACSB86:
LLSDACSE86:
	.section	.text$_ZN8CTest1exD1Ev,"x"
	.linkonce discard
	.section .rdata,"dr"
	.align 4
LC16:
	.ascii "CDerivedTest1::Constructor : name=\"%s\"\12\0"
	.section	.text$_ZN13CDerivedTest1C1EPKc,"x"
	.linkonce discard
	.align 2
	.globl	__ZN13CDerivedTest1C1EPKc
	.def	__ZN13CDerivedTest1C1EPKc;	.scl	2;	.type	32;	.endef
__ZN13CDerivedTest1C1EPKc:
LFB92:
	.cfi_startproc
	.cfi_personality 0,___gxx_personality_v0
	.cfi_lsda 0,LLSDA92
	pushl	%ebp
	.cfi_def_cfa_offset 8
	.cfi_offset 5, -8
	movl	%esp, %ebp
	.cfi_def_cfa_register 5
	pushl	%ebx
	subl	$20, %esp
	.cfi_offset 3, -12
	movl	8(%ebp), %eax
	movl	12(%ebp), %edx
	movl	%edx, 4(%esp)
	movl	%eax, (%esp)
LEHB13:
	call	__ZN6CTest1C2EPKc
LEHE13:
	movl	8(%ebp), %eax
	addl	$8, %eax
	movl	%eax, (%esp)
LEHB14:
	call	__ZN8CTest1exC2Ev
LEHE14:
	movl	8(%ebp), %eax
	movl	(%eax), %eax
	movl	%eax, 4(%esp)
	movl	$LC16, (%esp)
LEHB15:
	call	_printf
LEHE15:
	jmp	L57
L56:
	movl	%eax, %ebx
	movl	8(%ebp), %eax
	addl	$8, %eax
	movl	%eax, (%esp)
	call	__ZN8CTest1exD2Ev
	jmp	L54
L55:
	movl	%eax, %ebx
L54:
	movl	8(%ebp), %eax
	movl	%eax, (%esp)
	call	__ZN6CTest1D2Ev
	movl	%ebx, %eax
	movl	%eax, (%esp)
LEHB16:
	call	__Unwind_Resume
LEHE16:
L57:
	addl	$20, %esp
	popl	%ebx
	.cfi_restore 3
	popl	%ebp
	.cfi_restore 5
	.cfi_def_cfa 4, 4
	ret
	.cfi_endproc
LFE92:
	.section	.gcc_except_table,"w"
LLSDA92:
	.byte	0xff
	.byte	0xff
	.byte	0x1
	.uleb128 LLSDACSE92-LLSDACSB92
LLSDACSB92:
	.uleb128 LEHB13-LFB92
	.uleb128 LEHE13-LEHB13
	.uleb128 0
	.uleb128 0
	.uleb128 LEHB14-LFB92
	.uleb128 LEHE14-LEHB14
	.uleb128 L55-LFB92
	.uleb128 0
	.uleb128 LEHB15-LFB92
	.uleb128 LEHE15-LEHB15
	.uleb128 L56-LFB92
	.uleb128 0
	.uleb128 LEHB16-LFB92
	.uleb128 LEHE16-LEHB16
	.uleb128 0
	.uleb128 0
LLSDACSE92:
	.section	.text$_ZN13CDerivedTest1C1EPKc,"x"
	.linkonce discard
	.section .rdata,"dr"
	.align 4
LC17:
	.ascii "---------- test1:\345\233\272\345\256\232\343\203\220\343\203\203\343\203\225\343\202\241\351\205\215\347\275\256new/\351\205\215\347\275\256delete\357\274\210\346\214\231\345\213\225\347\242\272\350\252\215\357\274\211----------\0"
LC18:
	.ascii "----------\343\202\257\343\203\251\343\202\271\0"
LC19:
	.ascii "\343\203\206\343\202\271\343\203\210"
	.ascii "1\0"
LC20:
	.ascii "----------\343\202\257\343\203\251\343\202\271\343\201\256\351\205\215\345\210\227\0"
	.align 4
LC21:
	.ascii "*reinterpret_cast<int*>(buff)=%d\12\0"
	.align 4
LC22:
	.ascii "----------\343\203\227\343\203\252\343\203\237\343\203\206\343\202\243\343\203\226\345\236\213\0"
LC23:
	.ascii "data_p=0x%p\12\0"
LC24:
	.ascii "*data_p(0x%p)=%d\12\0"
	.align 4
LC25:
	.ascii "----------\343\203\227\343\203\252\343\203\237\343\203\206\343\202\243\343\203\226\345\236\213\343\201\256\351\205\215\345\210\227\0"
LC26:
	.ascii "*data_p(0x%p)[0]=%d\12\0"
	.align 4
LC27:
	.ascii "----------\345\244\232\351\207\215\347\266\231\346\211\277\343\202\257\343\203\251\343\202\271\0"
LC28:
	.ascii "\343\203\206\343\202\271\343\203\210"
	.ascii "1\345\244\232\351\207\215\347\266\231\346\211\277\0"
	.align 4
LC29:
	.ascii "obj_p=0x%p, parent_p=0x%p, parent_ex_p=0x%p\12\0"
	.text
	.globl	__Z5test1v
	.def	__Z5test1v;	.scl	2;	.type	32;	.endef
__Z5test1v:
LFB96:
	.cfi_startproc
	.cfi_personality 0,___gxx_personality_v0
	.cfi_lsda 0,LLSDA96
	pushl	%ebp
	.cfi_def_cfa_offset 8
	.cfi_offset 5, -8
	movl	%esp, %ebp
	.cfi_def_cfa_register 5
	pushl	%edi
	pushl	%esi
	pushl	%ebx
	subl	$156, %esp
	.cfi_offset 7, -12
	.cfi_offset 6, -16
	.cfi_offset 3, -20
	movl	$LC17, (%esp)
LEHB17:
	call	_puts
LEHE17:
	movl	$LC18, (%esp)
LEHB18:
	call	_puts
	leal	-124(%ebp), %eax
	movl	%eax, 4(%esp)
	movl	$LC3, (%esp)
	call	_printf
LEHE18:
	leal	-124(%ebp), %eax
	movl	%eax, 4(%esp)
	movl	$8, (%esp)
	call	__ZnwjPc
	movl	%eax, %ebx
	testl	%ebx, %ebx
	je	L59
	movl	$LC19, 4(%esp)
	movl	%ebx, (%esp)
LEHB19:
	call	__ZN6CTest1C1EPKc
LEHE19:
	movl	%ebx, %eax
	jmp	L60
L59:
	movl	%ebx, %eax
L60:
	movl	%eax, -44(%ebp)
	movl	-44(%ebp), %eax
	movl	%eax, 4(%esp)
	movl	$LC5, (%esp)
LEHB20:
	call	_printf
	leal	-44(%ebp), %eax
	movl	%eax, (%esp)
	call	__Z10delete_ptrI6CTest1EvRPT_
LEHE20:
	movl	$LC20, (%esp)
LEHB21:
	call	_puts
	leal	-124(%ebp), %eax
	movl	%eax, 4(%esp)
	movl	$LC3, (%esp)
	call	_printf
LEHE21:
	movl	$3, -28(%ebp)
	leal	-124(%ebp), %eax
	movl	%eax, 4(%esp)
	movl	$28, (%esp)
	call	__ZnajPc
	movl	%eax, %ebx
	testl	%ebx, %ebx
	je	L61
	movl	$3, (%ebx)
	leal	4(%ebx), %esi
	movl	$2, %edi
	movl	%esi, -140(%ebp)
	jmp	L62
L63:
	movl	-140(%ebp), %eax
	movl	%eax, (%esp)
LEHB22:
	call	__ZN6CTest1C1Ev
LEHE22:
	addl	$8, -140(%ebp)
	subl	$1, %edi
L62:
	cmpl	$-1, %edi
	jne	L63
	leal	4(%ebx), %eax
	jmp	L64
L61:
	movl	%ebx, %eax
L64:
	movl	%eax, -48(%ebp)
	movl	-48(%ebp), %eax
	movl	%eax, 4(%esp)
	movl	$LC5, (%esp)
LEHB23:
	call	_printf
	leal	-124(%ebp), %eax
	movl	(%eax), %eax
	movl	%eax, 4(%esp)
	movl	$LC21, (%esp)
	call	_printf
	movl	$3, 4(%esp)
	leal	-48(%ebp), %eax
	movl	%eax, (%esp)
	call	__Z10delete_ptrI6CTest1EvRPT_j
LEHE23:
	movl	$LC22, (%esp)
LEHB24:
	call	_puts
	leal	-124(%ebp), %eax
	movl	%eax, 4(%esp)
	movl	$LC3, (%esp)
	call	_printf
	leal	-124(%ebp), %eax
	movl	%eax, 4(%esp)
	movl	$1, (%esp)
	call	__ZnwjPc
	movl	%eax, -52(%ebp)
	movl	-52(%ebp), %eax
	movl	%eax, 4(%esp)
	movl	$LC23, (%esp)
	call	_printf
	movl	-52(%ebp), %eax
	movb	$123, (%eax)
	movl	-52(%ebp), %eax
	movzbl	(%eax), %eax
	movsbl	%al, %edx
	movl	-52(%ebp), %eax
	movl	%edx, 8(%esp)
	movl	%eax, 4(%esp)
	movl	$LC24, (%esp)
	call	_printf
	leal	-52(%ebp), %eax
	movl	%eax, (%esp)
	call	__Z10delete_ptrIcEvRPT_
LEHE24:
	movl	$LC25, (%esp)
LEHB25:
	call	_puts
	leal	-124(%ebp), %eax
	movl	%eax, 4(%esp)
	movl	$LC3, (%esp)
	call	_printf
	movl	$3, -32(%ebp)
	leal	-124(%ebp), %eax
	movl	%eax, 4(%esp)
	movl	$3, (%esp)
	call	__ZnajPc
	movl	%eax, -56(%ebp)
	movl	-56(%ebp), %eax
	movl	%eax, 4(%esp)
	movl	$LC23, (%esp)
	call	_printf
	leal	-124(%ebp), %eax
	movl	(%eax), %eax
	movl	%eax, 4(%esp)
	movl	$LC21, (%esp)
	call	_printf
	movl	-56(%ebp), %eax
	movb	$123, (%eax)
	movl	-56(%ebp), %eax
	movzbl	(%eax), %eax
	movsbl	%al, %edx
	movl	-56(%ebp), %eax
	movl	%edx, 8(%esp)
	movl	%eax, 4(%esp)
	movl	$LC26, (%esp)
	call	_printf
	movl	$3, 4(%esp)
	leal	-56(%ebp), %eax
	movl	%eax, (%esp)
	call	__Z10delete_ptrIcEvRPT_j
LEHE25:
	movl	$LC27, (%esp)
LEHB26:
	call	_puts
	leal	-124(%ebp), %eax
	movl	%eax, 4(%esp)
	movl	$LC3, (%esp)
	call	_printf
LEHE26:
	leal	-124(%ebp), %eax
	movl	%eax, 4(%esp)
	movl	$16, (%esp)
	call	__ZnwjPc
	movl	%eax, %ebx
	testl	%ebx, %ebx
	je	L65
	movl	$LC28, 4(%esp)
	movl	%ebx, (%esp)
LEHB27:
	call	__ZN13CDerivedTest1C1EPKc
LEHE27:
	movl	%ebx, %eax
	jmp	L66
L65:
	movl	%ebx, %eax
L66:
	movl	%eax, -36(%ebp)
	movl	-36(%ebp), %eax
	movl	%eax, -40(%ebp)
	cmpl	$0, -36(%ebp)
	je	L67
	movl	-36(%ebp), %eax
	addl	$8, %eax
	jmp	L68
L67:
	movl	$0, %eax
L68:
	movl	%eax, -60(%ebp)
	movl	-60(%ebp), %eax
	movl	%eax, 12(%esp)
	movl	-40(%ebp), %eax
	movl	%eax, 8(%esp)
	movl	-36(%ebp), %eax
	movl	%eax, 4(%esp)
	movl	$LC29, (%esp)
LEHB28:
	call	_printf
	leal	-60(%ebp), %eax
	movl	%eax, (%esp)
	call	__Z10delete_ptrI8CTest1exEvRPT_
LEHE28:
	jmp	L87
L80:
	movl	%eax, %esi
	leal	-124(%ebp), %eax
	movl	%eax, 4(%esp)
	movl	%ebx, (%esp)
	call	__ZdlPvPc
	movl	%esi, %eax
	jmp	L70
L79:
L70:
	movl	%eax, (%esp)
LEHB29:
	call	__Unwind_Resume
L82:
	movl	%eax, -140(%ebp)
	testl	%esi, %esi
	je	L72
	movl	$2, %eax
	subl	%edi, %eax
	sall	$3, %eax
	leal	(%esi,%eax), %edi
L73:
	cmpl	%esi, %edi
	je	L72
	subl	$8, %edi
	movl	%edi, (%esp)
	call	__ZN6CTest1D1Ev
	jmp	L73
L72:
	movl	-140(%ebp), %esi
	leal	-124(%ebp), %eax
	movl	%eax, 4(%esp)
	movl	%ebx, (%esp)
	call	__ZdaPvPc
	movl	%esi, %eax
	jmp	L74
L81:
L74:
	movl	%eax, (%esp)
	call	__Unwind_Resume
L83:
	movl	%eax, (%esp)
	call	__Unwind_Resume
L84:
	movl	%eax, (%esp)
	call	__Unwind_Resume
L86:
	movl	%eax, %esi
	leal	-124(%ebp), %eax
	movl	%eax, 4(%esp)
	movl	%ebx, (%esp)
	call	__ZdlPvPc
	movl	%esi, %eax
	jmp	L78
L85:
L78:
	movl	%eax, (%esp)
	call	__Unwind_Resume
LEHE29:
L87:
	addl	$156, %esp
	popl	%ebx
	.cfi_restore 3
	popl	%esi
	.cfi_restore 6
	popl	%edi
	.cfi_restore 7
	popl	%ebp
	.cfi_restore 5
	.cfi_def_cfa 4, 4
	ret
	.cfi_endproc
LFE96:
	.section	.gcc_except_table,"w"
LLSDA96:
	.byte	0xff
	.byte	0xff
	.byte	0x1
	.uleb128 LLSDACSE96-LLSDACSB96
LLSDACSB96:
	.uleb128 LEHB17-LFB96
	.uleb128 LEHE17-LEHB17
	.uleb128 0
	.uleb128 0
	.uleb128 LEHB18-LFB96
	.uleb128 LEHE18-LEHB18
	.uleb128 L79-LFB96
	.uleb128 0
	.uleb128 LEHB19-LFB96
	.uleb128 LEHE19-LEHB19
	.uleb128 L80-LFB96
	.uleb128 0
	.uleb128 LEHB20-LFB96
	.uleb128 LEHE20-LEHB20
	.uleb128 L79-LFB96
	.uleb128 0
	.uleb128 LEHB21-LFB96
	.uleb128 LEHE21-LEHB21
	.uleb128 L81-LFB96
	.uleb128 0
	.uleb128 LEHB22-LFB96
	.uleb128 LEHE22-LEHB22
	.uleb128 L82-LFB96
	.uleb128 0
	.uleb128 LEHB23-LFB96
	.uleb128 LEHE23-LEHB23
	.uleb128 L81-LFB96
	.uleb128 0
	.uleb128 LEHB24-LFB96
	.uleb128 LEHE24-LEHB24
	.uleb128 L83-LFB96
	.uleb128 0
	.uleb128 LEHB25-LFB96
	.uleb128 LEHE25-LEHB25
	.uleb128 L84-LFB96
	.uleb128 0
	.uleb128 LEHB26-LFB96
	.uleb128 LEHE26-LEHB26
	.uleb128 L85-LFB96
	.uleb128 0
	.uleb128 LEHB27-LFB96
	.uleb128 LEHE27-LEHB27
	.uleb128 L86-LFB96
	.uleb128 0
	.uleb128 LEHB28-LFB96
	.uleb128 LEHE28-LEHB28
	.uleb128 L85-LFB96
	.uleb128 0
	.uleb128 LEHB29-LFB96
	.uleb128 LEHE29-LEHB29
	.uleb128 0
	.uleb128 0
LLSDACSE96:
	.text
.lcomm __ZL19s_buffForTestClass2,64,32
	.section .rdata,"dr"
LC30:
	.ascii "CTest2::new(size=%d)\12\0"
	.section	.text$_ZN6CTest2nwEj,"x"
	.linkonce discard
	.globl	__ZN6CTest2nwEj
	.def	__ZN6CTest2nwEj;	.scl	2;	.type	32;	.endef
__ZN6CTest2nwEj:
LFB97:
	.cfi_startproc
	.cfi_personality 0,___gxx_personality_v0
	.cfi_lsda 0,LLSDA97
	pushl	%ebp
	.cfi_def_cfa_offset 8
	.cfi_offset 5, -8
	movl	%esp, %ebp
	.cfi_def_cfa_register 5
	subl	$24, %esp
	movl	8(%ebp), %eax
	movl	%eax, 4(%esp)
	movl	$LC30, (%esp)
LEHB30:
	call	_printf
LEHE30:
	movl	$__ZL19s_buffForTestClass2, %eax
	jmp	L93
L92:
	cmpl	$-1, %edx
	je	L91
	movl	%eax, (%esp)
LEHB31:
	call	__Unwind_Resume
L91:
	movl	%eax, (%esp)
	call	___cxa_call_unexpected
LEHE31:
L93:
	leave
	.cfi_restore 5
	.cfi_def_cfa 4, 4
	ret
	.cfi_endproc
LFE97:
	.section	.gcc_except_table,"w"
	.align 4
LLSDA97:
	.byte	0xff
	.byte	0
	.uleb128 LLSDATT97-LLSDATTD97
LLSDATTD97:
	.byte	0x1
	.uleb128 LLSDACSE97-LLSDACSB97
LLSDACSB97:
	.uleb128 LEHB30-LFB97
	.uleb128 LEHE30-LEHB30
	.uleb128 L92-LFB97
	.uleb128 0x1
	.uleb128 LEHB31-LFB97
	.uleb128 LEHE31-LEHB31
	.uleb128 0
	.uleb128 0
LLSDACSE97:
	.byte	0x7f
	.byte	0
	.align 4
LLSDATT97:
	.byte	0
	.section	.text$_ZN6CTest2nwEj,"x"
	.linkonce discard
	.section .rdata,"dr"
LC31:
	.ascii "CTest2::new[](size=%d)\12\0"
	.section	.text$_ZN6CTest2naEj,"x"
	.linkonce discard
	.globl	__ZN6CTest2naEj
	.def	__ZN6CTest2naEj;	.scl	2;	.type	32;	.endef
__ZN6CTest2naEj:
LFB98:
	.cfi_startproc
	.cfi_personality 0,___gxx_personality_v0
	.cfi_lsda 0,LLSDA98
	pushl	%ebp
	.cfi_def_cfa_offset 8
	.cfi_offset 5, -8
	movl	%esp, %ebp
	.cfi_def_cfa_register 5
	subl	$24, %esp
	movl	8(%ebp), %eax
	movl	%eax, 4(%esp)
	movl	$LC31, (%esp)
LEHB32:
	call	_printf
LEHE32:
	movl	$__ZL19s_buffForTestClass2, %eax
	jmp	L99
L98:
	cmpl	$-1, %edx
	je	L97
	movl	%eax, (%esp)
LEHB33:
	call	__Unwind_Resume
L97:
	movl	%eax, (%esp)
	call	___cxa_call_unexpected
LEHE33:
L99:
	leave
	.cfi_restore 5
	.cfi_def_cfa 4, 4
	ret
	.cfi_endproc
LFE98:
	.section	.gcc_except_table,"w"
	.align 4
LLSDA98:
	.byte	0xff
	.byte	0
	.uleb128 LLSDATT98-LLSDATTD98
LLSDATTD98:
	.byte	0x1
	.uleb128 LLSDACSE98-LLSDACSB98
LLSDACSB98:
	.uleb128 LEHB32-LFB98
	.uleb128 LEHE32-LEHB32
	.uleb128 L98-LFB98
	.uleb128 0x1
	.uleb128 LEHB33-LFB98
	.uleb128 LEHE33-LEHB33
	.uleb128 0
	.uleb128 0
LLSDACSE98:
	.byte	0x7f
	.byte	0
	.align 4
LLSDATT98:
	.byte	0
	.section	.text$_ZN6CTest2naEj,"x"
	.linkonce discard
	.section .rdata,"dr"
	.align 4
LC32:
	.ascii "CTest2::delete(p=0x%p, size=%d)\12\0"
	.section	.text$_ZN6CTest2dlEPvj,"x"
	.linkonce discard
	.globl	__ZN6CTest2dlEPvj
	.def	__ZN6CTest2dlEPvj;	.scl	2;	.type	32;	.endef
__ZN6CTest2dlEPvj:
LFB99:
	.cfi_startproc
	.cfi_personality 0,___gxx_personality_v0
	.cfi_lsda 0,LLSDA99
	pushl	%ebp
	.cfi_def_cfa_offset 8
	.cfi_offset 5, -8
	movl	%esp, %ebp
	.cfi_def_cfa_register 5
	subl	$24, %esp
	movl	12(%ebp), %eax
	movl	%eax, 8(%esp)
	movl	8(%ebp), %eax
	movl	%eax, 4(%esp)
	movl	$LC32, (%esp)
LEHB34:
	call	_printf
LEHE34:
	jmp	L104
L103:
	cmpl	$-1, %edx
	je	L102
	movl	%eax, (%esp)
LEHB35:
	call	__Unwind_Resume
L102:
	movl	%eax, (%esp)
	call	___cxa_call_unexpected
LEHE35:
L104:
	leave
	.cfi_restore 5
	.cfi_def_cfa 4, 4
	ret
	.cfi_endproc
LFE99:
	.section	.gcc_except_table,"w"
	.align 4
LLSDA99:
	.byte	0xff
	.byte	0
	.uleb128 LLSDATT99-LLSDATTD99
LLSDATTD99:
	.byte	0x1
	.uleb128 LLSDACSE99-LLSDACSB99
LLSDACSB99:
	.uleb128 LEHB34-LFB99
	.uleb128 LEHE34-LEHB34
	.uleb128 L103-LFB99
	.uleb128 0x1
	.uleb128 LEHB35-LFB99
	.uleb128 LEHE35-LEHB35
	.uleb128 0
	.uleb128 0
LLSDACSE99:
	.byte	0x7f
	.byte	0
	.align 4
LLSDATT99:
	.byte	0
	.section	.text$_ZN6CTest2dlEPvj,"x"
	.linkonce discard
	.section .rdata,"dr"
	.align 4
LC33:
	.ascii "CTest2::delete[](p=0x%p, size=%d)\12\0"
	.section	.text$_ZN6CTest2daEPvj,"x"
	.linkonce discard
	.globl	__ZN6CTest2daEPvj
	.def	__ZN6CTest2daEPvj;	.scl	2;	.type	32;	.endef
__ZN6CTest2daEPvj:
LFB100:
	.cfi_startproc
	.cfi_personality 0,___gxx_personality_v0
	.cfi_lsda 0,LLSDA100
	pushl	%ebp
	.cfi_def_cfa_offset 8
	.cfi_offset 5, -8
	movl	%esp, %ebp
	.cfi_def_cfa_register 5
	subl	$24, %esp
	movl	12(%ebp), %eax
	movl	%eax, 8(%esp)
	movl	8(%ebp), %eax
	movl	%eax, 4(%esp)
	movl	$LC33, (%esp)
LEHB36:
	call	_printf
LEHE36:
	jmp	L109
L108:
	cmpl	$-1, %edx
	je	L107
	movl	%eax, (%esp)
LEHB37:
	call	__Unwind_Resume
L107:
	movl	%eax, (%esp)
	call	___cxa_call_unexpected
LEHE37:
L109:
	leave
	.cfi_restore 5
	.cfi_def_cfa 4, 4
	ret
	.cfi_endproc
LFE100:
	.section	.gcc_except_table,"w"
	.align 4
LLSDA100:
	.byte	0xff
	.byte	0
	.uleb128 LLSDATT100-LLSDATTD100
LLSDATTD100:
	.byte	0x1
	.uleb128 LLSDACSE100-LLSDACSB100
LLSDACSB100:
	.uleb128 LEHB36-LFB100
	.uleb128 LEHE36-LEHB36
	.uleb128 L108-LFB100
	.uleb128 0x1
	.uleb128 LEHB37-LFB100
	.uleb128 LEHE37-LEHB37
	.uleb128 0
	.uleb128 0
LLSDACSE100:
	.byte	0x7f
	.byte	0
	.align 4
LLSDATT100:
	.byte	0
	.section	.text$_ZN6CTest2daEPvj,"x"
	.linkonce discard
	.section .rdata,"dr"
	.align 4
LC34:
	.ascii "CTest2::DefaultConstructor : name=\"%s\"\12\0"
	.section	.text$_ZN6CTest2C1Ev,"x"
	.linkonce discard
	.align 2
	.globl	__ZN6CTest2C1Ev
	.def	__ZN6CTest2C1Ev;	.scl	2;	.type	32;	.endef
__ZN6CTest2C1Ev:
LFB103:
	.cfi_startproc
	.cfi_personality 0,___gxx_personality_v0
	.cfi_lsda 0,LLSDA103
	pushl	%ebp
	.cfi_def_cfa_offset 8
	.cfi_offset 5, -8
	movl	%esp, %ebp
	.cfi_def_cfa_register 5
	pushl	%ebx
	subl	$20, %esp
	.cfi_offset 3, -12
	movl	$LC10, 4(%esp)
	movl	8(%ebp), %eax
	movl	%eax, (%esp)
LEHB38:
	call	__ZN6CTest2C1EPKc
LEHE38:
	movl	8(%ebp), %eax
	movl	4(%eax), %eax
	movl	%eax, 4(%esp)
	movl	$LC34, (%esp)
LEHB39:
	call	_printf
LEHE39:
	jmp	L113
L112:
	movl	%eax, %ebx
	movl	8(%ebp), %eax
	movl	%eax, (%esp)
	call	__ZN6CTest2D1Ev
	movl	%ebx, %eax
	movl	%eax, (%esp)
LEHB40:
	call	__Unwind_Resume
LEHE40:
L113:
	addl	$20, %esp
	popl	%ebx
	.cfi_restore 3
	popl	%ebp
	.cfi_restore 5
	.cfi_def_cfa 4, 4
	ret
	.cfi_endproc
LFE103:
	.section	.gcc_except_table,"w"
LLSDA103:
	.byte	0xff
	.byte	0xff
	.byte	0x1
	.uleb128 LLSDACSE103-LLSDACSB103
LLSDACSB103:
	.uleb128 LEHB38-LFB103
	.uleb128 LEHE38-LEHB38
	.uleb128 0
	.uleb128 0
	.uleb128 LEHB39-LFB103
	.uleb128 LEHE39-LEHB39
	.uleb128 L112-LFB103
	.uleb128 0
	.uleb128 LEHB40-LFB103
	.uleb128 LEHE40-LEHB40
	.uleb128 0
	.uleb128 0
LLSDACSE103:
	.section	.text$_ZN6CTest2C1Ev,"x"
	.linkonce discard
	.section .rdata,"dr"
	.align 4
LC35:
	.ascii "CTest2::Constructor : name=\"%s\"\12\0"
	.section	.text$_ZN6CTest2C2EPKc,"x"
	.linkonce discard
	.align 2
	.globl	__ZN6CTest2C2EPKc
	.def	__ZN6CTest2C2EPKc;	.scl	2;	.type	32;	.endef
__ZN6CTest2C2EPKc:
LFB105:
	.cfi_startproc
	pushl	%ebp
	.cfi_def_cfa_offset 8
	.cfi_offset 5, -8
	movl	%esp, %ebp
	.cfi_def_cfa_register 5
	subl	$24, %esp
	movl	8(%ebp), %eax
	movl	$__ZTV6CTest2+8, (%eax)
	movl	8(%ebp), %eax
	movl	12(%ebp), %edx
	movl	%edx, 4(%eax)
	movl	8(%ebp), %eax
	movl	4(%eax), %eax
	movl	%eax, 4(%esp)
	movl	$LC35, (%esp)
	call	_printf
	leave
	.cfi_restore 5
	.cfi_def_cfa 4, 4
	ret
	.cfi_endproc
LFE105:
	.section	.text$_ZN6CTest2C1EPKc,"x"
	.linkonce discard
	.align 2
	.globl	__ZN6CTest2C1EPKc
	.def	__ZN6CTest2C1EPKc;	.scl	2;	.type	32;	.endef
__ZN6CTest2C1EPKc:
LFB106:
	.cfi_startproc
	pushl	%ebp
	.cfi_def_cfa_offset 8
	.cfi_offset 5, -8
	movl	%esp, %ebp
	.cfi_def_cfa_register 5
	subl	$24, %esp
	movl	8(%ebp), %eax
	movl	$__ZTV6CTest2+8, (%eax)
	movl	8(%ebp), %eax
	movl	12(%ebp), %edx
	movl	%edx, 4(%eax)
	movl	8(%ebp), %eax
	movl	4(%eax), %eax
	movl	%eax, 4(%esp)
	movl	$LC35, (%esp)
	call	_printf
	leave
	.cfi_restore 5
	.cfi_def_cfa 4, 4
	ret
	.cfi_endproc
LFE106:
	.section .rdata,"dr"
	.align 4
LC36:
	.ascii "CTest2::Destructor : name=\"%s\"\12\0"
	.section	.text$_ZN6CTest2D2Ev,"x"
	.linkonce discard
	.align 2
	.globl	__ZN6CTest2D2Ev
	.def	__ZN6CTest2D2Ev;	.scl	2;	.type	32;	.endef
__ZN6CTest2D2Ev:
LFB108:
	.cfi_startproc
	.cfi_personality 0,___gxx_personality_v0
	.cfi_lsda 0,LLSDA108
	pushl	%ebp
	.cfi_def_cfa_offset 8
	.cfi_offset 5, -8
	movl	%esp, %ebp
	.cfi_def_cfa_register 5
	subl	$24, %esp
	movl	8(%ebp), %eax
	movl	$__ZTV6CTest2+8, (%eax)
	movl	8(%ebp), %eax
	movl	4(%eax), %eax
	movl	%eax, 4(%esp)
	movl	$LC36, (%esp)
	call	_printf
	movl	$0, %eax
	testl	%eax, %eax
	je	L116
	movl	$12, 4(%esp)
	movl	8(%ebp), %eax
	movl	%eax, (%esp)
	call	__ZN6CTest2dlEPvj
L116:
	leave
	.cfi_restore 5
	.cfi_def_cfa 4, 4
	ret
	.cfi_endproc
LFE108:
	.section	.gcc_except_table,"w"
LLSDA108:
	.byte	0xff
	.byte	0xff
	.byte	0x1
	.uleb128 LLSDACSE108-LLSDACSB108
LLSDACSB108:
LLSDACSE108:
	.section	.text$_ZN6CTest2D2Ev,"x"
	.linkonce discard
	.section	.text$_ZN6CTest2D1Ev,"x"
	.linkonce discard
	.align 2
	.globl	__ZN6CTest2D1Ev
	.def	__ZN6CTest2D1Ev;	.scl	2;	.type	32;	.endef
__ZN6CTest2D1Ev:
LFB109:
	.cfi_startproc
	.cfi_personality 0,___gxx_personality_v0
	.cfi_lsda 0,LLSDA109
	pushl	%ebp
	.cfi_def_cfa_offset 8
	.cfi_offset 5, -8
	movl	%esp, %ebp
	.cfi_def_cfa_register 5
	subl	$24, %esp
	movl	8(%ebp), %eax
	movl	$__ZTV6CTest2+8, (%eax)
	movl	8(%ebp), %eax
	movl	4(%eax), %eax
	movl	%eax, 4(%esp)
	movl	$LC36, (%esp)
	call	_printf
	movl	$0, %eax
	testl	%eax, %eax
	je	L119
	movl	$12, 4(%esp)
	movl	8(%ebp), %eax
	movl	%eax, (%esp)
	call	__ZN6CTest2dlEPvj
L119:
	leave
	.cfi_restore 5
	.cfi_def_cfa 4, 4
	ret
	.cfi_endproc
LFE109:
	.section	.gcc_except_table,"w"
LLSDA109:
	.byte	0xff
	.byte	0xff
	.byte	0x1
	.uleb128 LLSDACSE109-LLSDACSB109
LLSDACSB109:
LLSDACSE109:
	.section	.text$_ZN6CTest2D1Ev,"x"
	.linkonce discard
	.section	.text$_ZN6CTest2D0Ev,"x"
	.linkonce discard
	.align 2
	.globl	__ZN6CTest2D0Ev
	.def	__ZN6CTest2D0Ev;	.scl	2;	.type	32;	.endef
__ZN6CTest2D0Ev:
LFB110:
	.cfi_startproc
	pushl	%ebp
	.cfi_def_cfa_offset 8
	.cfi_offset 5, -8
	movl	%esp, %ebp
	.cfi_def_cfa_register 5
	subl	$24, %esp
	movl	8(%ebp), %eax
	movl	%eax, (%esp)
	call	__ZN6CTest2D1Ev
	movl	$12, 4(%esp)
	movl	8(%ebp), %eax
	movl	%eax, (%esp)
	call	__ZN6CTest2dlEPvj
	leave
	.cfi_restore 5
	.cfi_def_cfa 4, 4
	ret
	.cfi_endproc
LFE110:
	.section .rdata,"dr"
LC37:
	.ascii "CTest2ex::delete(p=0x%p)\12\0"
	.section	.text$_ZN8CTest2exdlEPv,"x"
	.linkonce discard
	.globl	__ZN8CTest2exdlEPv
	.def	__ZN8CTest2exdlEPv;	.scl	2;	.type	32;	.endef
__ZN8CTest2exdlEPv:
LFB112:
	.cfi_startproc
	.cfi_personality 0,___gxx_personality_v0
	.cfi_lsda 0,LLSDA112
	pushl	%ebp
	.cfi_def_cfa_offset 8
	.cfi_offset 5, -8
	movl	%esp, %ebp
	.cfi_def_cfa_register 5
	subl	$24, %esp
	movl	8(%ebp), %eax
	movl	%eax, 4(%esp)
	movl	$LC37, (%esp)
LEHB41:
	call	_printf
LEHE41:
	jmp	L128
L127:
	cmpl	$-1, %edx
	je	L126
	movl	%eax, (%esp)
LEHB42:
	call	__Unwind_Resume
L126:
	movl	%eax, (%esp)
	call	___cxa_call_unexpected
LEHE42:
L128:
	leave
	.cfi_restore 5
	.cfi_def_cfa 4, 4
	ret
	.cfi_endproc
LFE112:
	.section	.gcc_except_table,"w"
	.align 4
LLSDA112:
	.byte	0xff
	.byte	0
	.uleb128 LLSDATT112-LLSDATTD112
LLSDATTD112:
	.byte	0x1
	.uleb128 LLSDACSE112-LLSDACSB112
LLSDACSB112:
	.uleb128 LEHB41-LFB112
	.uleb128 LEHE41-LEHB41
	.uleb128 L127-LFB112
	.uleb128 0x1
	.uleb128 LEHB42-LFB112
	.uleb128 LEHE42-LEHB42
	.uleb128 0
	.uleb128 0
LLSDACSE112:
	.byte	0x7f
	.byte	0
	.align 4
LLSDATT112:
	.byte	0
	.section	.text$_ZN8CTest2exdlEPv,"x"
	.linkonce discard
	.section .rdata,"dr"
LC38:
	.ascii "CTest2ex::Constructor\0"
	.section	.text$_ZN8CTest2exC2Ev,"x"
	.linkonce discard
	.align 2
	.globl	__ZN8CTest2exC2Ev
	.def	__ZN8CTest2exC2Ev;	.scl	2;	.type	32;	.endef
__ZN8CTest2exC2Ev:
LFB114:
	.cfi_startproc
	pushl	%ebp
	.cfi_def_cfa_offset 8
	.cfi_offset 5, -8
	movl	%esp, %ebp
	.cfi_def_cfa_register 5
	subl	$24, %esp
	movl	8(%ebp), %eax
	movl	$__ZTV8CTest2ex+8, (%eax)
	movl	$LC38, (%esp)
	call	_puts
	leave
	.cfi_restore 5
	.cfi_def_cfa 4, 4
	ret
	.cfi_endproc
LFE114:
	.section .rdata,"dr"
LC39:
	.ascii "CTest2ex::Destructor\0"
	.section	.text$_ZN8CTest2exD2Ev,"x"
	.linkonce discard
	.align 2
	.globl	__ZN8CTest2exD2Ev
	.def	__ZN8CTest2exD2Ev;	.scl	2;	.type	32;	.endef
__ZN8CTest2exD2Ev:
LFB117:
	.cfi_startproc
	.cfi_personality 0,___gxx_personality_v0
	.cfi_lsda 0,LLSDA117
	pushl	%ebp
	.cfi_def_cfa_offset 8
	.cfi_offset 5, -8
	movl	%esp, %ebp
	.cfi_def_cfa_register 5
	subl	$24, %esp
	movl	8(%ebp), %eax
	movl	$__ZTV8CTest2ex+8, (%eax)
	movl	$LC39, (%esp)
	call	_puts
	movl	$0, %eax
	testl	%eax, %eax
	je	L130
	movl	8(%ebp), %eax
	movl	%eax, (%esp)
	call	__ZN8CTest2exdlEPv
L130:
	leave
	.cfi_restore 5
	.cfi_def_cfa 4, 4
	ret
	.cfi_endproc
LFE117:
	.section	.gcc_except_table,"w"
LLSDA117:
	.byte	0xff
	.byte	0xff
	.byte	0x1
	.uleb128 LLSDACSE117-LLSDACSB117
LLSDACSB117:
LLSDACSE117:
	.section	.text$_ZN8CTest2exD2Ev,"x"
	.linkonce discard
	.section	.text$_ZN8CTest2exD1Ev,"x"
	.linkonce discard
	.align 2
	.globl	__ZN8CTest2exD1Ev
	.def	__ZN8CTest2exD1Ev;	.scl	2;	.type	32;	.endef
__ZN8CTest2exD1Ev:
LFB118:
	.cfi_startproc
	.cfi_personality 0,___gxx_personality_v0
	.cfi_lsda 0,LLSDA118
	pushl	%ebp
	.cfi_def_cfa_offset 8
	.cfi_offset 5, -8
	movl	%esp, %ebp
	.cfi_def_cfa_register 5
	subl	$24, %esp
	movl	8(%ebp), %eax
	movl	$__ZTV8CTest2ex+8, (%eax)
	movl	$LC39, (%esp)
	call	_puts
	movl	$0, %eax
	testl	%eax, %eax
	je	L133
	movl	8(%ebp), %eax
	movl	%eax, (%esp)
	call	__ZN8CTest2exdlEPv
L133:
	leave
	.cfi_restore 5
	.cfi_def_cfa 4, 4
	ret
	.cfi_endproc
LFE118:
	.section	.gcc_except_table,"w"
LLSDA118:
	.byte	0xff
	.byte	0xff
	.byte	0x1
	.uleb128 LLSDACSE118-LLSDACSB118
LLSDACSB118:
LLSDACSE118:
	.section	.text$_ZN8CTest2exD1Ev,"x"
	.linkonce discard
	.section	.text$_ZN8CTest2exD0Ev,"x"
	.linkonce discard
	.align 2
	.globl	__ZN8CTest2exD0Ev
	.def	__ZN8CTest2exD0Ev;	.scl	2;	.type	32;	.endef
__ZN8CTest2exD0Ev:
LFB119:
	.cfi_startproc
	pushl	%ebp
	.cfi_def_cfa_offset 8
	.cfi_offset 5, -8
	movl	%esp, %ebp
	.cfi_def_cfa_register 5
	subl	$24, %esp
	movl	8(%ebp), %eax
	movl	%eax, (%esp)
	call	__ZN8CTest2exD1Ev
	movl	8(%ebp), %eax
	movl	%eax, (%esp)
	call	__ZN8CTest2exdlEPv
	leave
	.cfi_restore 5
	.cfi_def_cfa 4, 4
	ret
	.cfi_endproc
LFE119:
	.section .rdata,"dr"
LC40:
	.ascii "CDerivedTest2::new(size=%d)\12\0"
	.section	.text$_ZN13CDerivedTest2nwEj,"x"
	.linkonce discard
	.globl	__ZN13CDerivedTest2nwEj
	.def	__ZN13CDerivedTest2nwEj;	.scl	2;	.type	32;	.endef
__ZN13CDerivedTest2nwEj:
LFB120:
	.cfi_startproc
	.cfi_personality 0,___gxx_personality_v0
	.cfi_lsda 0,LLSDA120
	pushl	%ebp
	.cfi_def_cfa_offset 8
	.cfi_offset 5, -8
	movl	%esp, %ebp
	.cfi_def_cfa_register 5
	subl	$24, %esp
	movl	8(%ebp), %eax
	movl	%eax, 4(%esp)
	movl	$LC40, (%esp)
LEHB43:
	call	_printf
LEHE43:
	movl	$__ZL19s_buffForTestClass2, %eax
	jmp	L143
L142:
	cmpl	$-1, %edx
	je	L141
	movl	%eax, (%esp)
LEHB44:
	call	__Unwind_Resume
L141:
	movl	%eax, (%esp)
	call	___cxa_call_unexpected
LEHE44:
L143:
	leave
	.cfi_restore 5
	.cfi_def_cfa 4, 4
	ret
	.cfi_endproc
LFE120:
	.section	.gcc_except_table,"w"
	.align 4
LLSDA120:
	.byte	0xff
	.byte	0
	.uleb128 LLSDATT120-LLSDATTD120
LLSDATTD120:
	.byte	0x1
	.uleb128 LLSDACSE120-LLSDACSB120
LLSDACSB120:
	.uleb128 LEHB43-LFB120
	.uleb128 LEHE43-LEHB43
	.uleb128 L142-LFB120
	.uleb128 0x1
	.uleb128 LEHB44-LFB120
	.uleb128 LEHE44-LEHB44
	.uleb128 0
	.uleb128 0
LLSDACSE120:
	.byte	0x7f
	.byte	0
	.align 4
LLSDATT120:
	.byte	0
	.section	.text$_ZN13CDerivedTest2nwEj,"x"
	.linkonce discard
	.section .rdata,"dr"
	.align 4
LC41:
	.ascii "CDerivedTest2::delete(p=0x%p)\12\0"
	.section	.text$_ZN13CDerivedTest2dlEPv,"x"
	.linkonce discard
	.globl	__ZN13CDerivedTest2dlEPv
	.def	__ZN13CDerivedTest2dlEPv;	.scl	2;	.type	32;	.endef
__ZN13CDerivedTest2dlEPv:
LFB121:
	.cfi_startproc
	.cfi_personality 0,___gxx_personality_v0
	.cfi_lsda 0,LLSDA121
	pushl	%ebp
	.cfi_def_cfa_offset 8
	.cfi_offset 5, -8
	movl	%esp, %ebp
	.cfi_def_cfa_register 5
	subl	$24, %esp
	movl	8(%ebp), %eax
	movl	%eax, 4(%esp)
	movl	$LC41, (%esp)
LEHB45:
	call	_printf
LEHE45:
	jmp	L148
L147:
	cmpl	$-1, %edx
	je	L146
	movl	%eax, (%esp)
LEHB46:
	call	__Unwind_Resume
L146:
	movl	%eax, (%esp)
	call	___cxa_call_unexpected
LEHE46:
L148:
	leave
	.cfi_restore 5
	.cfi_def_cfa 4, 4
	ret
	.cfi_endproc
LFE121:
	.section	.gcc_except_table,"w"
	.align 4
LLSDA121:
	.byte	0xff
	.byte	0
	.uleb128 LLSDATT121-LLSDATTD121
LLSDATTD121:
	.byte	0x1
	.uleb128 LLSDACSE121-LLSDACSB121
LLSDACSB121:
	.uleb128 LEHB45-LFB121
	.uleb128 LEHE45-LEHB45
	.uleb128 L147-LFB121
	.uleb128 0x1
	.uleb128 LEHB46-LFB121
	.uleb128 LEHE46-LEHB46
	.uleb128 0
	.uleb128 0
LLSDACSE121:
	.byte	0x7f
	.byte	0
	.align 4
LLSDATT121:
	.byte	0
	.section	.text$_ZN13CDerivedTest2dlEPv,"x"
	.linkonce discard
	.section .rdata,"dr"
	.align 4
LC42:
	.ascii "CDerivedTest2::Constructor : name=\"%s\"\12\0"
	.section	.text$_ZN13CDerivedTest2C1EPKc,"x"
	.linkonce discard
	.align 2
	.globl	__ZN13CDerivedTest2C1EPKc
	.def	__ZN13CDerivedTest2C1EPKc;	.scl	2;	.type	32;	.endef
__ZN13CDerivedTest2C1EPKc:
LFB127:
	.cfi_startproc
	.cfi_personality 0,___gxx_personality_v0
	.cfi_lsda 0,LLSDA127
	pushl	%ebp
	.cfi_def_cfa_offset 8
	.cfi_offset 5, -8
	movl	%esp, %ebp
	.cfi_def_cfa_register 5
	pushl	%ebx
	subl	$20, %esp
	.cfi_offset 3, -12
	movl	8(%ebp), %eax
	movl	12(%ebp), %edx
	movl	%edx, 4(%esp)
	movl	%eax, (%esp)
LEHB47:
	call	__ZN6CTest2C2EPKc
LEHE47:
	movl	8(%ebp), %eax
	addl	$12, %eax
	movl	%eax, (%esp)
LEHB48:
	call	__ZN8CTest2exC2Ev
LEHE48:
	movl	8(%ebp), %eax
	movl	$__ZTV13CDerivedTest2+8, (%eax)
	movl	8(%ebp), %eax
	movl	$__ZTV13CDerivedTest2+24, 12(%eax)
	movl	8(%ebp), %eax
	movl	4(%eax), %eax
	movl	%eax, 4(%esp)
	movl	$LC42, (%esp)
LEHB49:
	call	_printf
LEHE49:
	jmp	L154
L153:
	movl	%eax, %ebx
	movl	8(%ebp), %eax
	addl	$12, %eax
	movl	%eax, (%esp)
	call	__ZN8CTest2exD2Ev
	jmp	L151
L152:
	movl	%eax, %ebx
L151:
	movl	8(%ebp), %eax
	movl	%eax, (%esp)
	call	__ZN6CTest2D2Ev
	movl	%ebx, %eax
	movl	%eax, (%esp)
LEHB50:
	call	__Unwind_Resume
LEHE50:
L154:
	addl	$20, %esp
	popl	%ebx
	.cfi_restore 3
	popl	%ebp
	.cfi_restore 5
	.cfi_def_cfa 4, 4
	ret
	.cfi_endproc
LFE127:
	.section	.gcc_except_table,"w"
LLSDA127:
	.byte	0xff
	.byte	0xff
	.byte	0x1
	.uleb128 LLSDACSE127-LLSDACSB127
LLSDACSB127:
	.uleb128 LEHB47-LFB127
	.uleb128 LEHE47-LEHB47
	.uleb128 0
	.uleb128 0
	.uleb128 LEHB48-LFB127
	.uleb128 LEHE48-LEHB48
	.uleb128 L152-LFB127
	.uleb128 0
	.uleb128 LEHB49-LFB127
	.uleb128 LEHE49-LEHB49
	.uleb128 L153-LFB127
	.uleb128 0
	.uleb128 LEHB50-LFB127
	.uleb128 LEHE50-LEHB50
	.uleb128 0
	.uleb128 0
LLSDACSE127:
	.section	.text$_ZN13CDerivedTest2C1EPKc,"x"
	.linkonce discard
	.section .rdata,"dr"
	.align 4
LC43:
	.ascii "CDerivedTest2::Destructor : name=\"%s\"\12\0"
	.section	.text$_ZN13CDerivedTest2D1Ev,"x"
	.linkonce discard
	.align 2
	.globl	__ZN13CDerivedTest2D1Ev
	.def	__ZN13CDerivedTest2D1Ev;	.scl	2;	.type	32;	.endef
__ZN13CDerivedTest2D1Ev:
LFB130:
	.cfi_startproc
	.cfi_personality 0,___gxx_personality_v0
	.cfi_lsda 0,LLSDA130
	pushl	%ebp
	.cfi_def_cfa_offset 8
	.cfi_offset 5, -8
	movl	%esp, %ebp
	.cfi_def_cfa_register 5
	subl	$24, %esp
	movl	8(%ebp), %eax
	movl	$__ZTV13CDerivedTest2+8, (%eax)
	movl	8(%ebp), %eax
	movl	$__ZTV13CDerivedTest2+24, 12(%eax)
	movl	8(%ebp), %eax
	movl	4(%eax), %eax
	movl	%eax, 4(%esp)
	movl	$LC43, (%esp)
	call	_printf
	movl	8(%ebp), %eax
	addl	$12, %eax
	movl	%eax, (%esp)
	call	__ZN8CTest2exD2Ev
	movl	8(%ebp), %eax
	movl	%eax, (%esp)
	call	__ZN6CTest2D2Ev
	movl	$0, %eax
	testl	%eax, %eax
	je	L155
	movl	8(%ebp), %eax
	movl	%eax, (%esp)
	call	__ZN13CDerivedTest2dlEPv
L155:
	leave
	.cfi_restore 5
	.cfi_def_cfa 4, 4
	ret
	.cfi_endproc
LFE130:
	.section	.gcc_except_table,"w"
LLSDA130:
	.byte	0xff
	.byte	0xff
	.byte	0x1
	.uleb128 LLSDACSE130-LLSDACSB130
LLSDACSB130:
LLSDACSE130:
	.section	.text$_ZN13CDerivedTest2D1Ev,"x"
	.linkonce discard
	.section	.text$_ZThn12_N13CDerivedTest2D1Ev,"x"
	.linkonce discard
	.globl	__ZThn12_N13CDerivedTest2D1Ev
	.def	__ZThn12_N13CDerivedTest2D1Ev;	.scl	2;	.type	32;	.endef
__ZThn12_N13CDerivedTest2D1Ev:
LFB3871:
	.cfi_startproc
	subl	$12, 4(%esp)
	jmp	__ZN13CDerivedTest2D1Ev
	.cfi_endproc
LFE3871:
	.section	.text$_ZN13CDerivedTest2D0Ev,"x"
	.linkonce discard
	.align 2
	.globl	__ZN13CDerivedTest2D0Ev
	.def	__ZN13CDerivedTest2D0Ev;	.scl	2;	.type	32;	.endef
__ZN13CDerivedTest2D0Ev:
LFB131:
	.cfi_startproc
	pushl	%ebp
	.cfi_def_cfa_offset 8
	.cfi_offset 5, -8
	movl	%esp, %ebp
	.cfi_def_cfa_register 5
	subl	$24, %esp
	movl	8(%ebp), %eax
	movl	%eax, (%esp)
	call	__ZN13CDerivedTest2D1Ev
	movl	8(%ebp), %eax
	movl	%eax, (%esp)
	call	__ZN13CDerivedTest2dlEPv
	leave
	.cfi_restore 5
	.cfi_def_cfa 4, 4
	ret
	.cfi_endproc
LFE131:
	.section	.text$_ZThn12_N13CDerivedTest2D0Ev,"x"
	.linkonce discard
	.globl	__ZThn12_N13CDerivedTest2D0Ev
	.def	__ZThn12_N13CDerivedTest2D0Ev;	.scl	2;	.type	32;	.endef
__ZThn12_N13CDerivedTest2D0Ev:
LFB3872:
	.cfi_startproc
	subl	$12, 4(%esp)
	jmp	__ZN13CDerivedTest2D0Ev
	.cfi_endproc
LFE3872:
	.section .rdata,"dr"
	.align 4
LC44:
	.ascii "---------- test2:\343\202\257\343\203\251\343\202\271\345\206\205new/delete ----------\0"
LC45:
	.ascii "s_buffForTestClass2=0x%p\12\0"
LC46:
	.ascii "\343\203\206\343\202\271\343\203\210"
	.ascii "2\0"
	.align 4
LC47:
	.ascii "*reinterpret_cast<int*>(s_buffForTestClass2)=%d\12\0"
LC48:
	.ascii "\343\203\206\343\202\271\343\203\210"
	.ascii "2\345\244\232\351\207\215\347\266\231\346\211\277\0"
	.text
	.globl	__Z5test2v
	.def	__Z5test2v;	.scl	2;	.type	32;	.endef
__Z5test2v:
LFB132:
	.cfi_startproc
	.cfi_personality 0,___gxx_personality_v0
	.cfi_lsda 0,LLSDA132
	pushl	%ebp
	.cfi_def_cfa_offset 8
	.cfi_offset 5, -8
	movl	%esp, %ebp
	.cfi_def_cfa_register 5
	pushl	%edi
	pushl	%esi
	pushl	%ebx
	subl	$76, %esp
	.cfi_offset 7, -12
	.cfi_offset 6, -16
	.cfi_offset 3, -20
	movl	$LC44, (%esp)
LEHB51:
	call	_puts
	movl	$LC18, (%esp)
	call	_puts
	movl	$__ZL19s_buffForTestClass2, 4(%esp)
	movl	$LC45, (%esp)
	call	_printf
LEHE51:
	movl	$12, (%esp)
	call	__ZN6CTest2nwEj
	movl	%eax, %ebx
	testl	%ebx, %ebx
	je	L161
	movl	$LC46, 4(%esp)
	movl	%ebx, (%esp)
LEHB52:
	call	__ZN6CTest2C1EPKc
LEHE52:
	movl	%ebx, %eax
	jmp	L162
L161:
	movl	%ebx, %eax
L162:
	movl	%eax, -28(%ebp)
	movl	-28(%ebp), %eax
	movl	%eax, 4(%esp)
	movl	$LC5, (%esp)
LEHB53:
	call	_printf
	cmpl	$0, -28(%ebp)
	je	L163
	movl	-28(%ebp), %eax
	movl	(%eax), %eax
	addl	$4, %eax
	movl	(%eax), %eax
	movl	-28(%ebp), %edx
	movl	%edx, (%esp)
	call	*%eax
L163:
	movl	$LC20, (%esp)
	call	_puts
	movl	$__ZL19s_buffForTestClass2, 4(%esp)
	movl	$LC45, (%esp)
	call	_printf
LEHE53:
	movl	$40, (%esp)
	call	__ZN6CTest2naEj
	movl	%eax, %ebx
	testl	%ebx, %ebx
	je	L164
	movl	$3, (%ebx)
	leal	4(%ebx), %edi
	movl	$2, %esi
	movl	%edi, -60(%ebp)
	jmp	L165
L166:
	movl	-60(%ebp), %eax
	movl	%eax, (%esp)
LEHB54:
	call	__ZN6CTest2C1Ev
LEHE54:
	addl	$12, -60(%ebp)
	subl	$1, %esi
L165:
	cmpl	$-1, %esi
	jne	L166
	leal	4(%ebx), %eax
	jmp	L167
L164:
	movl	%ebx, %eax
L167:
	movl	%eax, -32(%ebp)
	movl	-32(%ebp), %eax
	movl	%eax, 4(%esp)
	movl	$LC5, (%esp)
LEHB55:
	call	_printf
	movl	$__ZL19s_buffForTestClass2, %eax
	movl	(%eax), %eax
	movl	%eax, 4(%esp)
	movl	$LC47, (%esp)
	call	_printf
	cmpl	$0, -32(%ebp)
	je	L168
	movl	-32(%ebp), %eax
	subl	$4, %eax
	movl	(%eax), %edx
	movl	%edx, %eax
	addl	%eax, %eax
	addl	%edx, %eax
	sall	$2, %eax
	movl	%eax, %edx
	movl	-32(%ebp), %eax
	leal	(%edx,%eax), %ebx
L170:
	cmpl	-32(%ebp), %ebx
	je	L169
	subl	$12, %ebx
	movl	(%ebx), %eax
	movl	(%eax), %eax
	movl	%ebx, (%esp)
	call	*%eax
	jmp	L170
L169:
	movl	-32(%ebp), %eax
	subl	$4, %eax
	movl	(%eax), %edx
	movl	%edx, %eax
	addl	%eax, %eax
	addl	%edx, %eax
	sall	$2, %eax
	leal	4(%eax), %edx
	movl	-32(%ebp), %eax
	subl	$4, %eax
	movl	%edx, 4(%esp)
	movl	%eax, (%esp)
	call	__ZN6CTest2daEPvj
L168:
	movl	$LC27, (%esp)
	call	_puts
	movl	$__ZL19s_buffForTestClass2, 4(%esp)
	movl	$LC45, (%esp)
	call	_printf
LEHE55:
	movl	$24, (%esp)
	call	__ZN13CDerivedTest2nwEj
	movl	%eax, %ebx
	testl	%ebx, %ebx
	je	L171
	movl	$LC48, 4(%esp)
	movl	%ebx, (%esp)
LEHB56:
	call	__ZN13CDerivedTest2C1EPKc
LEHE56:
	movl	%ebx, %eax
	jmp	L172
L171:
	movl	%ebx, %eax
L172:
	movl	%eax, -36(%ebp)
	movl	-36(%ebp), %eax
	movl	%eax, -40(%ebp)
	cmpl	$0, -36(%ebp)
	je	L173
	movl	-36(%ebp), %eax
	addl	$12, %eax
	jmp	L174
L173:
	movl	$0, %eax
L174:
	movl	%eax, -44(%ebp)
	movl	-44(%ebp), %eax
	movl	%eax, 12(%esp)
	movl	-40(%ebp), %eax
	movl	%eax, 8(%esp)
	movl	-36(%ebp), %eax
	movl	%eax, 4(%esp)
	movl	$LC29, (%esp)
LEHB57:
	call	_printf
	cmpl	$0, -44(%ebp)
	je	L184
	movl	-44(%ebp), %eax
	movl	(%eax), %eax
	addl	$4, %eax
	movl	(%eax), %eax
	movl	-44(%ebp), %edx
	movl	%edx, (%esp)
	call	*%eax
	jmp	L184
L181:
	movl	%eax, %esi
	movl	$12, 4(%esp)
	movl	%ebx, (%esp)
	call	__ZN6CTest2dlEPvj
	movl	%esi, %eax
	movl	%eax, (%esp)
	call	__Unwind_Resume
L182:
	movl	%eax, -60(%ebp)
	testl	%edi, %edi
	je	L178
	movl	$2, %eax
	subl	%esi, %eax
	movl	%eax, %edx
	movl	%edx, %eax
	addl	%eax, %eax
	addl	%edx, %eax
	sall	$2, %eax
	leal	(%edi,%eax), %esi
L179:
	cmpl	%edi, %esi
	je	L178
	subl	$12, %esi
	movl	(%esi), %eax
	movl	(%eax), %eax
	movl	%esi, (%esp)
	call	*%eax
	jmp	L179
L178:
	movl	-60(%ebp), %esi
	movl	$40, 4(%esp)
	movl	%ebx, (%esp)
	call	__ZN6CTest2daEPvj
	movl	%esi, %eax
	movl	%eax, (%esp)
	call	__Unwind_Resume
L183:
	movl	%eax, %esi
	movl	%ebx, (%esp)
	call	__ZN13CDerivedTest2dlEPv
	movl	%esi, %eax
	movl	%eax, (%esp)
	call	__Unwind_Resume
LEHE57:
L184:
	addl	$76, %esp
	popl	%ebx
	.cfi_restore 3
	popl	%esi
	.cfi_restore 6
	popl	%edi
	.cfi_restore 7
	popl	%ebp
	.cfi_restore 5
	.cfi_def_cfa 4, 4
	ret
	.cfi_endproc
LFE132:
	.section	.gcc_except_table,"w"
LLSDA132:
	.byte	0xff
	.byte	0xff
	.byte	0x1
	.uleb128 LLSDACSE132-LLSDACSB132
LLSDACSB132:
	.uleb128 LEHB51-LFB132
	.uleb128 LEHE51-LEHB51
	.uleb128 0
	.uleb128 0
	.uleb128 LEHB52-LFB132
	.uleb128 LEHE52-LEHB52
	.uleb128 L181-LFB132
	.uleb128 0
	.uleb128 LEHB53-LFB132
	.uleb128 LEHE53-LEHB53
	.uleb128 0
	.uleb128 0
	.uleb128 LEHB54-LFB132
	.uleb128 LEHE54-LEHB54
	.uleb128 L182-LFB132
	.uleb128 0
	.uleb128 LEHB55-LFB132
	.uleb128 LEHE55-LEHB55
	.uleb128 0
	.uleb128 0
	.uleb128 LEHB56-LFB132
	.uleb128 LEHE56-LEHB56
	.uleb128 L183-LFB132
	.uleb128 0
	.uleb128 LEHB57-LFB132
	.uleb128 LEHE57-LEHB57
	.uleb128 0
	.uleb128 0
LLSDACSE132:
	.text
	.section	.text$_ZN16CTest3Singleton111getSigletonEv,"x"
	.linkonce discard
	.globl	__ZN16CTest3Singleton111getSigletonEv
	.def	__ZN16CTest3Singleton111getSigletonEv;	.scl	2;	.type	32;	.endef
__ZN16CTest3Singleton111getSigletonEv:
LFB133:
	.cfi_startproc
	pushl	%ebp
	.cfi_def_cfa_offset 8
	.cfi_offset 5, -8
	movl	%esp, %ebp
	.cfi_def_cfa_register 5
	movl	$__ZN16CTest3Singleton111m_singletonE, %eax
	popl	%ebp
	.cfi_restore 5
	.cfi_def_cfa 4, 4
	ret
	.cfi_endproc
LFE133:
	.section	.text$_ZNK16CTest3Singleton17getDataEv,"x"
	.linkonce discard
	.align 2
	.globl	__ZNK16CTest3Singleton17getDataEv
	.def	__ZNK16CTest3Singleton17getDataEv;	.scl	2;	.type	32;	.endef
__ZNK16CTest3Singleton17getDataEv:
LFB134:
	.cfi_startproc
	pushl	%ebp
	.cfi_def_cfa_offset 8
	.cfi_offset 5, -8
	movl	%esp, %ebp
	.cfi_def_cfa_register 5
	movl	8(%ebp), %eax
	movl	(%eax), %eax
	popl	%ebp
	.cfi_restore 5
	.cfi_def_cfa 4, 4
	ret
	.cfi_endproc
LFE134:
	.section	.text$_ZN16CTest3Singleton17setDataEi,"x"
	.linkonce discard
	.align 2
	.globl	__ZN16CTest3Singleton17setDataEi
	.def	__ZN16CTest3Singleton17setDataEi;	.scl	2;	.type	32;	.endef
__ZN16CTest3Singleton17setDataEi:
LFB135:
	.cfi_startproc
	pushl	%ebp
	.cfi_def_cfa_offset 8
	.cfi_offset 5, -8
	movl	%esp, %ebp
	.cfi_def_cfa_register 5
	movl	8(%ebp), %eax
	movl	12(%ebp), %edx
	movl	%edx, (%eax)
	popl	%ebp
	.cfi_restore 5
	.cfi_def_cfa 4, 4
	ret
	.cfi_endproc
LFE135:
	.section .rdata,"dr"
	.align 4
LC49:
	.ascii "CTest3Singleton1::Constructor : m_data=%d\12\0"
	.section	.text$_ZN16CTest3Singleton1C1Ev,"x"
	.linkonce discard
	.align 2
	.globl	__ZN16CTest3Singleton1C1Ev
	.def	__ZN16CTest3Singleton1C1Ev;	.scl	2;	.type	32;	.endef
__ZN16CTest3Singleton1C1Ev:
LFB138:
	.cfi_startproc
	pushl	%ebp
	.cfi_def_cfa_offset 8
	.cfi_offset 5, -8
	movl	%esp, %ebp
	.cfi_def_cfa_register 5
	subl	$24, %esp
	movl	8(%ebp), %eax
	movl	$0, (%eax)
	movl	8(%ebp), %eax
	movl	(%eax), %eax
	movl	%eax, 4(%esp)
	movl	$LC49, (%esp)
	call	_printf
	leave
	.cfi_restore 5
	.cfi_def_cfa 4, 4
	ret
	.cfi_endproc
LFE138:
	.section .rdata,"dr"
	.align 4
LC50:
	.ascii "CTest3Singleton1::Destructor : m_data=%d\12\0"
	.section	.text$_ZN16CTest3Singleton1D1Ev,"x"
	.linkonce discard
	.align 2
	.globl	__ZN16CTest3Singleton1D1Ev
	.def	__ZN16CTest3Singleton1D1Ev;	.scl	2;	.type	32;	.endef
__ZN16CTest3Singleton1D1Ev:
LFB141:
	.cfi_startproc
	.cfi_personality 0,___gxx_personality_v0
	.cfi_lsda 0,LLSDA141
	pushl	%ebp
	.cfi_def_cfa_offset 8
	.cfi_offset 5, -8
	movl	%esp, %ebp
	.cfi_def_cfa_register 5
	subl	$24, %esp
	movl	8(%ebp), %eax
	movl	(%eax), %eax
	movl	%eax, 4(%esp)
	movl	$LC50, (%esp)
	call	_printf
	leave
	.cfi_restore 5
	.cfi_def_cfa 4, 4
	ret
	.cfi_endproc
LFE141:
	.section	.gcc_except_table,"w"
LLSDA141:
	.byte	0xff
	.byte	0xff
	.byte	0x1
	.uleb128 LLSDACSE141-LLSDACSB141
LLSDACSB141:
LLSDACSE141:
	.section	.text$_ZN16CTest3Singleton1D1Ev,"x"
	.linkonce discard
	.globl	__ZN16CTest3Singleton111m_singletonE
	.bss
	.align 4
__ZN16CTest3Singleton111m_singletonE:
	.space 4
	.section .rdata,"dr"
LC51:
	.ascii "singleton_p->getData()=%d\12\0"
	.text
	.globl	__Z16printData_typeA1v
	.def	__Z16printData_typeA1v;	.scl	2;	.type	32;	.endef
__Z16printData_typeA1v:
LFB142:
	.cfi_startproc
	pushl	%ebp
	.cfi_def_cfa_offset 8
	.cfi_offset 5, -8
	movl	%esp, %ebp
	.cfi_def_cfa_register 5
	subl	$40, %esp
	call	__ZN16CTest3Singleton111getSigletonEv
	movl	%eax, -12(%ebp)
	movl	-12(%ebp), %eax
	movl	%eax, (%esp)
	call	__ZNK16CTest3Singleton17getDataEv
	movl	%eax, 4(%esp)
	movl	$LC51, (%esp)
	call	_printf
	leave
	.cfi_restore 5
	.cfi_def_cfa 4, 4
	ret
	.cfi_endproc
LFE142:
	.globl	__Z17updateData_typeA1v
	.def	__Z17updateData_typeA1v;	.scl	2;	.type	32;	.endef
__Z17updateData_typeA1v:
LFB143:
	.cfi_startproc
	pushl	%ebp
	.cfi_def_cfa_offset 8
	.cfi_offset 5, -8
	movl	%esp, %ebp
	.cfi_def_cfa_register 5
	subl	$24, %esp
	call	__ZN16CTest3Singleton111getSigletonEv
	movl	%eax, -4(%ebp)
	movl	$123, 4(%esp)
	movl	-4(%ebp), %eax
	movl	%eax, (%esp)
	call	__ZN16CTest3Singleton17setDataEi
	leave
	.cfi_restore 5
	.cfi_def_cfa 4, 4
	ret
	.cfi_endproc
LFE143:
	.section	.text$_ZN16CTest3Singleton211getSigletonEv,"x"
	.linkonce discard
	.globl	__ZN16CTest3Singleton211getSigletonEv
	.def	__ZN16CTest3Singleton211getSigletonEv;	.scl	2;	.type	32;	.endef
__ZN16CTest3Singleton211getSigletonEv:
LFB144:
	.cfi_startproc
	pushl	%ebp
	.cfi_def_cfa_offset 8
	.cfi_offset 5, -8
	movl	%esp, %ebp
	.cfi_def_cfa_register 5
	subl	$8, %esp
	call	__ZN16CTest3Singleton26createEv
	movl	__ZN16CTest3Singleton211m_singletonE, %eax
	leave
	.cfi_restore 5
	.cfi_def_cfa 4, 4
	ret
	.cfi_endproc
LFE144:
	.section	.text$_ZNK16CTest3Singleton27getDataEv,"x"
	.linkonce discard
	.align 2
	.globl	__ZNK16CTest3Singleton27getDataEv
	.def	__ZNK16CTest3Singleton27getDataEv;	.scl	2;	.type	32;	.endef
__ZNK16CTest3Singleton27getDataEv:
LFB145:
	.cfi_startproc
	pushl	%ebp
	.cfi_def_cfa_offset 8
	.cfi_offset 5, -8
	movl	%esp, %ebp
	.cfi_def_cfa_register 5
	movl	8(%ebp), %eax
	movl	(%eax), %eax
	popl	%ebp
	.cfi_restore 5
	.cfi_def_cfa 4, 4
	ret
	.cfi_endproc
LFE145:
	.section	.text$_ZN16CTest3Singleton27setDataEi,"x"
	.linkonce discard
	.align 2
	.globl	__ZN16CTest3Singleton27setDataEi
	.def	__ZN16CTest3Singleton27setDataEi;	.scl	2;	.type	32;	.endef
__ZN16CTest3Singleton27setDataEi:
LFB146:
	.cfi_startproc
	pushl	%ebp
	.cfi_def_cfa_offset 8
	.cfi_offset 5, -8
	movl	%esp, %ebp
	.cfi_def_cfa_register 5
	movl	8(%ebp), %eax
	movl	12(%ebp), %edx
	movl	%edx, (%eax)
	popl	%ebp
	.cfi_restore 5
	.cfi_def_cfa 4, 4
	ret
	.cfi_endproc
LFE146:
	.section	.text$_ZN16CTest3Singleton2nwEj,"x"
	.linkonce discard
	.globl	__ZN16CTest3Singleton2nwEj
	.def	__ZN16CTest3Singleton2nwEj;	.scl	2;	.type	32;	.endef
__ZN16CTest3Singleton2nwEj:
LFB147:
	.cfi_startproc
	pushl	%ebp
	.cfi_def_cfa_offset 8
	.cfi_offset 5, -8
	movl	%esp, %ebp
	.cfi_def_cfa_register 5
	movl	$__ZN16CTest3Singleton215m_singletonBuffE, %eax
	popl	%ebp
	.cfi_restore 5
	.cfi_def_cfa 4, 4
	ret
	.cfi_endproc
LFE147:
	.section	.text$_ZN16CTest3Singleton2dlEPv,"x"
	.linkonce discard
	.globl	__ZN16CTest3Singleton2dlEPv
	.def	__ZN16CTest3Singleton2dlEPv;	.scl	2;	.type	32;	.endef
__ZN16CTest3Singleton2dlEPv:
LFB148:
	.cfi_startproc
	pushl	%ebp
	.cfi_def_cfa_offset 8
	.cfi_offset 5, -8
	movl	%esp, %ebp
	.cfi_def_cfa_register 5
	popl	%ebp
	.cfi_restore 5
	.cfi_def_cfa 4, 4
	ret
	.cfi_endproc
LFE148:
	.section	.text$_ZN16CTest3Singleton26createEv,"x"
	.linkonce discard
	.globl	__ZN16CTest3Singleton26createEv
	.def	__ZN16CTest3Singleton26createEv;	.scl	2;	.type	32;	.endef
__ZN16CTest3Singleton26createEv:
LFB149:
	.cfi_startproc
	.cfi_personality 0,___gxx_personality_v0
	.cfi_lsda 0,LLSDA149
	pushl	%ebp
	.cfi_def_cfa_offset 8
	.cfi_offset 5, -8
	movl	%esp, %ebp
	.cfi_def_cfa_register 5
	pushl	%esi
	pushl	%ebx
	subl	$16, %esp
	.cfi_offset 6, -12
	.cfi_offset 3, -16
	movl	__ZN16CTest3Singleton211m_singletonE, %eax
	testl	%eax, %eax
	je	L204
	jmp	L203
L204:
	movl	$4, (%esp)
	call	__ZN16CTest3Singleton2nwEj
	movl	%eax, %ebx
	testl	%ebx, %ebx
	je	L206
	movl	%ebx, (%esp)
LEHB58:
	call	__ZN16CTest3Singleton2C1Ev
LEHE58:
	movl	%ebx, %eax
	jmp	L207
L206:
	movl	%ebx, %eax
L207:
	movl	%eax, __ZN16CTest3Singleton211m_singletonE
	jmp	L203
L209:
	movl	%eax, %esi
	movl	%ebx, (%esp)
	call	__ZN16CTest3Singleton2dlEPv
	movl	%esi, %eax
	movl	%eax, (%esp)
LEHB59:
	call	__Unwind_Resume
LEHE59:
L203:
	addl	$16, %esp
	popl	%ebx
	.cfi_restore 3
	popl	%esi
	.cfi_restore 6
	popl	%ebp
	.cfi_restore 5
	.cfi_def_cfa 4, 4
	ret
	.cfi_endproc
LFE149:
	.section	.gcc_except_table,"w"
LLSDA149:
	.byte	0xff
	.byte	0xff
	.byte	0x1
	.uleb128 LLSDACSE149-LLSDACSB149
LLSDACSB149:
	.uleb128 LEHB58-LFB149
	.uleb128 LEHE58-LEHB58
	.uleb128 L209-LFB149
	.uleb128 0
	.uleb128 LEHB59-LFB149
	.uleb128 LEHE59-LEHB59
	.uleb128 0
	.uleb128 0
LLSDACSE149:
	.section	.text$_ZN16CTest3Singleton26createEv,"x"
	.linkonce discard
	.section	.text$_ZN16CTest3Singleton27destroyEv,"x"
	.linkonce discard
	.globl	__ZN16CTest3Singleton27destroyEv
	.def	__ZN16CTest3Singleton27destroyEv;	.scl	2;	.type	32;	.endef
__ZN16CTest3Singleton27destroyEv:
LFB150:
	.cfi_startproc
	pushl	%ebp
	.cfi_def_cfa_offset 8
	.cfi_offset 5, -8
	movl	%esp, %ebp
	.cfi_def_cfa_register 5
	pushl	%ebx
	subl	$20, %esp
	.cfi_offset 3, -12
	movl	__ZN16CTest3Singleton211m_singletonE, %eax
	testl	%eax, %eax
	jne	L211
	jmp	L210
L211:
	movl	__ZN16CTest3Singleton211m_singletonE, %ebx
	testl	%ebx, %ebx
	je	L213
	movl	%ebx, (%esp)
	call	__ZN16CTest3Singleton2D1Ev
	movl	%ebx, (%esp)
	call	__ZN16CTest3Singleton2dlEPv
L213:
	movl	$0, __ZN16CTest3Singleton211m_singletonE
L210:
	addl	$20, %esp
	popl	%ebx
	.cfi_restore 3
	popl	%ebp
	.cfi_restore 5
	.cfi_def_cfa 4, 4
	ret
	.cfi_endproc
LFE150:
	.section .rdata,"dr"
	.align 4
LC52:
	.ascii "CTest3Singleton2::Constructor : m_data=%d\12\0"
	.section	.text$_ZN16CTest3Singleton2C1Ev,"x"
	.linkonce discard
	.align 2
	.globl	__ZN16CTest3Singleton2C1Ev
	.def	__ZN16CTest3Singleton2C1Ev;	.scl	2;	.type	32;	.endef
__ZN16CTest3Singleton2C1Ev:
LFB153:
	.cfi_startproc
	pushl	%ebp
	.cfi_def_cfa_offset 8
	.cfi_offset 5, -8
	movl	%esp, %ebp
	.cfi_def_cfa_register 5
	subl	$24, %esp
	movl	8(%ebp), %eax
	movl	$0, (%eax)
	movl	8(%ebp), %eax
	movl	(%eax), %eax
	movl	%eax, 4(%esp)
	movl	$LC52, (%esp)
	call	_printf
	leave
	.cfi_restore 5
	.cfi_def_cfa 4, 4
	ret
	.cfi_endproc
LFE153:
	.section .rdata,"dr"
	.align 4
LC53:
	.ascii "CTest3Singleton2::Destructor : m_data=%d\12\0"
	.section	.text$_ZN16CTest3Singleton2D1Ev,"x"
	.linkonce discard
	.align 2
	.globl	__ZN16CTest3Singleton2D1Ev
	.def	__ZN16CTest3Singleton2D1Ev;	.scl	2;	.type	32;	.endef
__ZN16CTest3Singleton2D1Ev:
LFB156:
	.cfi_startproc
	.cfi_personality 0,___gxx_personality_v0
	.cfi_lsda 0,LLSDA156
	pushl	%ebp
	.cfi_def_cfa_offset 8
	.cfi_offset 5, -8
	movl	%esp, %ebp
	.cfi_def_cfa_register 5
	subl	$24, %esp
	movl	8(%ebp), %eax
	movl	(%eax), %eax
	movl	%eax, 4(%esp)
	movl	$LC53, (%esp)
	call	_printf
	leave
	.cfi_restore 5
	.cfi_def_cfa 4, 4
	ret
	.cfi_endproc
LFE156:
	.section	.gcc_except_table,"w"
LLSDA156:
	.byte	0xff
	.byte	0xff
	.byte	0x1
	.uleb128 LLSDACSE156-LLSDACSB156
LLSDACSB156:
LLSDACSE156:
	.section	.text$_ZN16CTest3Singleton2D1Ev,"x"
	.linkonce discard
	.globl	__ZN16CTest3Singleton211m_singletonE
	.bss
	.align 4
__ZN16CTest3Singleton211m_singletonE:
	.space 4
	.globl	__ZN16CTest3Singleton215m_singletonBuffE
__ZN16CTest3Singleton215m_singletonBuffE:
	.space 4
	.text
	.globl	__Z16printData_typeA2v
	.def	__Z16printData_typeA2v;	.scl	2;	.type	32;	.endef
__Z16printData_typeA2v:
LFB157:
	.cfi_startproc
	pushl	%ebp
	.cfi_def_cfa_offset 8
	.cfi_offset 5, -8
	movl	%esp, %ebp
	.cfi_def_cfa_register 5
	subl	$40, %esp
	call	__ZN16CTest3Singleton211getSigletonEv
	movl	%eax, -12(%ebp)
	movl	-12(%ebp), %eax
	movl	%eax, (%esp)
	call	__ZNK16CTest3Singleton27getDataEv
	movl	%eax, 4(%esp)
	movl	$LC51, (%esp)
	call	_printf
	leave
	.cfi_restore 5
	.cfi_def_cfa 4, 4
	ret
	.cfi_endproc
LFE157:
	.globl	__Z17updateData_typeA2v
	.def	__Z17updateData_typeA2v;	.scl	2;	.type	32;	.endef
__Z17updateData_typeA2v:
LFB158:
	.cfi_startproc
	pushl	%ebp
	.cfi_def_cfa_offset 8
	.cfi_offset 5, -8
	movl	%esp, %ebp
	.cfi_def_cfa_register 5
	subl	$40, %esp
	call	__ZN16CTest3Singleton211getSigletonEv
	movl	%eax, -12(%ebp)
	movl	$123, 4(%esp)
	movl	-12(%ebp), %eax
	movl	%eax, (%esp)
	call	__ZN16CTest3Singleton27setDataEi
	leave
	.cfi_restore 5
	.cfi_def_cfa 4, 4
	ret
	.cfi_endproc
LFE158:
	.globl	__Z26deleteIntentionally_typeA2v
	.def	__Z26deleteIntentionally_typeA2v;	.scl	2;	.type	32;	.endef
__Z26deleteIntentionally_typeA2v:
LFB159:
	.cfi_startproc
	pushl	%ebp
	.cfi_def_cfa_offset 8
	.cfi_offset 5, -8
	movl	%esp, %ebp
	.cfi_def_cfa_register 5
	subl	$8, %esp
	call	__ZN16CTest3Singleton27destroyEv
	leave
	.cfi_restore 5
	.cfi_def_cfa 4, 4
	ret
	.cfi_endproc
LFE159:
	.section	.text$_ZNK6CTest37getDataEv,"x"
	.linkonce discard
	.align 2
	.globl	__ZNK6CTest37getDataEv
	.def	__ZNK6CTest37getDataEv;	.scl	2;	.type	32;	.endef
__ZNK6CTest37getDataEv:
LFB165:
	.cfi_startproc
	pushl	%ebp
	.cfi_def_cfa_offset 8
	.cfi_offset 5, -8
	movl	%esp, %ebp
	.cfi_def_cfa_register 5
	movl	8(%ebp), %eax
	movl	(%eax), %eax
	popl	%ebp
	.cfi_restore 5
	.cfi_def_cfa 4, 4
	ret
	.cfi_endproc
LFE165:
	.section	.text$_ZN6CTest37setDataEi,"x"
	.linkonce discard
	.align 2
	.globl	__ZN6CTest37setDataEi
	.def	__ZN6CTest37setDataEi;	.scl	2;	.type	32;	.endef
__ZN6CTest37setDataEi:
LFB166:
	.cfi_startproc
	pushl	%ebp
	.cfi_def_cfa_offset 8
	.cfi_offset 5, -8
	movl	%esp, %ebp
	.cfi_def_cfa_register 5
	movl	8(%ebp), %eax
	movl	12(%ebp), %edx
	movl	%edx, (%eax)
	popl	%ebp
	.cfi_restore 5
	.cfi_def_cfa 4, 4
	ret
	.cfi_endproc
LFE166:
	.section .rdata,"dr"
	.align 4
LC54:
	.ascii "CTest3::Constructor : m_data=%d\12\0"
	.section	.text$_ZN6CTest3C1Ev,"x"
	.linkonce discard
	.align 2
	.globl	__ZN6CTest3C1Ev
	.def	__ZN6CTest3C1Ev;	.scl	2;	.type	32;	.endef
__ZN6CTest3C1Ev:
LFB169:
	.cfi_startproc
	pushl	%ebp
	.cfi_def_cfa_offset 8
	.cfi_offset 5, -8
	movl	%esp, %ebp
	.cfi_def_cfa_register 5
	subl	$24, %esp
	movl	8(%ebp), %eax
	movl	$0, (%eax)
	movl	8(%ebp), %eax
	movl	(%eax), %eax
	movl	%eax, 4(%esp)
	movl	$LC54, (%esp)
	call	_printf
	leave
	.cfi_restore 5
	.cfi_def_cfa 4, 4
	ret
	.cfi_endproc
LFE169:
	.section .rdata,"dr"
	.align 4
LC55:
	.ascii "CTest3::Destructor : m_data=%d\12\0"
	.section	.text$_ZN6CTest3D1Ev,"x"
	.linkonce discard
	.align 2
	.globl	__ZN6CTest3D1Ev
	.def	__ZN6CTest3D1Ev;	.scl	2;	.type	32;	.endef
__ZN6CTest3D1Ev:
LFB172:
	.cfi_startproc
	.cfi_personality 0,___gxx_personality_v0
	.cfi_lsda 0,LLSDA172
	pushl	%ebp
	.cfi_def_cfa_offset 8
	.cfi_offset 5, -8
	movl	%esp, %ebp
	.cfi_def_cfa_register 5
	subl	$24, %esp
	movl	8(%ebp), %eax
	movl	(%eax), %eax
	movl	%eax, 4(%esp)
	movl	$LC55, (%esp)
	call	_printf
	leave
	.cfi_restore 5
	.cfi_def_cfa 4, 4
	ret
	.cfi_endproc
LFE172:
	.section	.gcc_except_table,"w"
LLSDA172:
	.byte	0xff
	.byte	0xff
	.byte	0x1
	.uleb128 LLSDACSE172-LLSDACSB172
LLSDACSB172:
LLSDACSE172:
	.section	.text$_ZN6CTest3D1Ev,"x"
	.linkonce discard
	.section .rdata,"dr"
LC56:
	.ascii "singleton->getData()=%d\12\0"
	.text
	.globl	__Z15printData_typeBv
	.def	__Z15printData_typeBv;	.scl	2;	.type	32;	.endef
__Z15printData_typeBv:
LFB173:
	.cfi_startproc
	.cfi_personality 0,___gxx_personality_v0
	.cfi_lsda 0,LLSDA173
	pushl	%ebp
	.cfi_def_cfa_offset 8
	.cfi_offset 5, -8
	movl	%esp, %ebp
	.cfi_def_cfa_register 5
	subl	$40, %esp
	leal	-9(%ebp), %eax
	movl	%eax, (%esp)
LEHB60:
	call	__ZN10CSingletonI6CTest3EC1Ev
	leal	-9(%ebp), %eax
	movl	%eax, (%esp)
	call	__ZN10CSingletonI6CTest3EptEv
	movl	%eax, (%esp)
	call	__ZNK6CTest37getDataEv
	movl	%eax, 4(%esp)
	movl	$LC56, (%esp)
	call	_printf
LEHE60:
	jmp	L229
L228:
	movl	%eax, (%esp)
LEHB61:
	call	__Unwind_Resume
LEHE61:
L229:
	leave
	.cfi_restore 5
	.cfi_def_cfa 4, 4
	ret
	.cfi_endproc
LFE173:
	.section	.gcc_except_table,"w"
LLSDA173:
	.byte	0xff
	.byte	0xff
	.byte	0x1
	.uleb128 LLSDACSE173-LLSDACSB173
LLSDACSB173:
	.uleb128 LEHB60-LFB173
	.uleb128 LEHE60-LEHB60
	.uleb128 L228-LFB173
	.uleb128 0
	.uleb128 LEHB61-LFB173
	.uleb128 LEHE61-LEHB61
	.uleb128 0
	.uleb128 0
LLSDACSE173:
	.text
	.globl	__Z16updateData_typeBv
	.def	__Z16updateData_typeBv;	.scl	2;	.type	32;	.endef
__Z16updateData_typeBv:
LFB174:
	.cfi_startproc
	.cfi_personality 0,___gxx_personality_v0
	.cfi_lsda 0,LLSDA174
	pushl	%ebp
	.cfi_def_cfa_offset 8
	.cfi_offset 5, -8
	movl	%esp, %ebp
	.cfi_def_cfa_register 5
	subl	$40, %esp
	leal	-9(%ebp), %eax
	movl	%eax, (%esp)
LEHB62:
	call	__ZN10CSingletonI6CTest3EC1Ev
LEHE62:
	leal	-9(%ebp), %eax
	movl	%eax, (%esp)
	call	__ZN10CSingletonI6CTest3EptEv
	movl	$123, 4(%esp)
	movl	%eax, (%esp)
	call	__ZN6CTest37setDataEi
	jmp	L233
L232:
	movl	%eax, (%esp)
LEHB63:
	call	__Unwind_Resume
LEHE63:
L233:
	leave
	.cfi_restore 5
	.cfi_def_cfa 4, 4
	ret
	.cfi_endproc
LFE174:
	.section	.gcc_except_table,"w"
LLSDA174:
	.byte	0xff
	.byte	0xff
	.byte	0x1
	.uleb128 LLSDACSE174-LLSDACSB174
LLSDACSB174:
	.uleb128 LEHB62-LFB174
	.uleb128 LEHE62-LEHB62
	.uleb128 L232-LFB174
	.uleb128 0
	.uleb128 LEHB63-LFB174
	.uleb128 LEHE63-LEHB63
	.uleb128 0
	.uleb128 0
LLSDACSE174:
	.text
	.globl	__Z25deleteIntentionally_typeBv
	.def	__Z25deleteIntentionally_typeBv;	.scl	2;	.type	32;	.endef
__Z25deleteIntentionally_typeBv:
LFB175:
	.cfi_startproc
	.cfi_personality 0,___gxx_personality_v0
	.cfi_lsda 0,LLSDA175
	pushl	%ebp
	.cfi_def_cfa_offset 8
	.cfi_offset 5, -8
	movl	%esp, %ebp
	.cfi_def_cfa_register 5
	subl	$40, %esp
	leal	-9(%ebp), %eax
	movl	%eax, (%esp)
LEHB64:
	call	__ZN10CSingletonI6CTest3EC1Ev
LEHE64:
	leal	-9(%ebp), %eax
	movl	%eax, (%esp)
	call	__ZN10CSingletonI6CTest3E7destroyEv
	jmp	L237
L236:
	movl	%eax, (%esp)
LEHB65:
	call	__Unwind_Resume
LEHE65:
L237:
	leave
	.cfi_restore 5
	.cfi_def_cfa 4, 4
	ret
	.cfi_endproc
LFE175:
	.section	.gcc_except_table,"w"
LLSDA175:
	.byte	0xff
	.byte	0xff
	.byte	0x1
	.uleb128 LLSDACSE175-LLSDACSB175
LLSDACSB175:
	.uleb128 LEHB64-LFB175
	.uleb128 LEHE64-LEHB64
	.uleb128 L236-LFB175
	.uleb128 0
	.uleb128 LEHB65-LFB175
	.uleb128 LEHE65-LEHB65
	.uleb128 0
	.uleb128 0
LLSDACSE175:
	.text
	.section .rdata,"dr"
	.align 4
LC57:
	.ascii "---------- test3:\343\202\267\343\203\263\343\202\260\343\203\253\343\203\210\343\203\263 ----------\0"
	.align 4
LC58:
	.ascii "----------\345\260\202\347\224\250\343\202\267\343\203\263\343\202\260\343\203\253\343\203\210\343\203\263\357\274\232\345\215\230\347\264\224\343\202\277\343\202\244\343\203\227\0"
	.align 4
LC59:
	.ascii "----------\345\260\202\347\224\250\343\202\267\343\203\263\343\202\260\343\203\253\343\203\210\343\203\263\357\274\232\343\202\244\343\203\263\343\202\271\343\202\277\343\203\263\343\202\271\346\223\215\344\275\234\343\202\277\343\202\244\343\203\227\0"
	.align 4
LC60:
	.ascii "----------\346\261\216\347\224\250\343\202\267\343\203\263\343\202\260\343\203\253\343\203\210\343\203\263\0"
	.text
	.globl	__Z5test3v
	.def	__Z5test3v;	.scl	2;	.type	32;	.endef
__Z5test3v:
LFB176:
	.cfi_startproc
	pushl	%ebp
	.cfi_def_cfa_offset 8
	.cfi_offset 5, -8
	movl	%esp, %ebp
	.cfi_def_cfa_register 5
	subl	$24, %esp
	movl	$LC57, (%esp)
	call	_puts
	movl	$LC58, (%esp)
	call	_puts
	call	__Z16printData_typeA1v
	call	__Z17updateData_typeA1v
	call	__Z16printData_typeA1v
	movl	$LC59, (%esp)
	call	_puts
	call	__Z16printData_typeA2v
	call	__Z17updateData_typeA2v
	call	__Z16printData_typeA2v
	call	__Z26deleteIntentionally_typeA2v
	call	__Z16printData_typeA2v
	movl	$LC60, (%esp)
	call	_puts
	call	__Z15printData_typeBv
	call	__Z16updateData_typeBv
	call	__Z15printData_typeBv
	call	__Z25deleteIntentionally_typeBv
	call	__Z15printData_typeBv
	leave
	.cfi_restore 5
	.cfi_def_cfa 4, 4
	ret
	.cfi_endproc
LFE176:
	.section	.text$_ZN15IStackAllocatorD2Ev,"x"
	.linkonce discard
	.align 2
	.globl	__ZN15IStackAllocatorD2Ev
	.def	__ZN15IStackAllocatorD2Ev;	.scl	2;	.type	32;	.endef
__ZN15IStackAllocatorD2Ev:
LFB178:
	.cfi_startproc
	pushl	%ebp
	.cfi_def_cfa_offset 8
	.cfi_offset 5, -8
	movl	%esp, %ebp
	.cfi_def_cfa_register 5
	subl	$24, %esp
	movl	8(%ebp), %eax
	movl	$__ZTV15IStackAllocator+8, (%eax)
	movl	$0, %eax
	testl	%eax, %eax
	je	L239
	movl	8(%ebp), %eax
	movl	%eax, (%esp)
	call	__ZdlPv
L239:
	leave
	.cfi_restore 5
	.cfi_def_cfa 4, 4
	ret
	.cfi_endproc
LFE178:
	.section	.text$_ZN15IStackAllocatorD1Ev,"x"
	.linkonce discard
	.align 2
	.globl	__ZN15IStackAllocatorD1Ev
	.def	__ZN15IStackAllocatorD1Ev;	.scl	2;	.type	32;	.endef
__ZN15IStackAllocatorD1Ev:
LFB179:
	.cfi_startproc
	pushl	%ebp
	.cfi_def_cfa_offset 8
	.cfi_offset 5, -8
	movl	%esp, %ebp
	.cfi_def_cfa_register 5
	subl	$24, %esp
	movl	8(%ebp), %eax
	movl	$__ZTV15IStackAllocator+8, (%eax)
	movl	$0, %eax
	testl	%eax, %eax
	je	L242
	movl	8(%ebp), %eax
	movl	%eax, (%esp)
	call	__ZdlPv
L242:
	leave
	.cfi_restore 5
	.cfi_def_cfa 4, 4
	ret
	.cfi_endproc
LFE179:
	.section	.text$_ZN15IStackAllocatorD0Ev,"x"
	.linkonce discard
	.align 2
	.globl	__ZN15IStackAllocatorD0Ev
	.def	__ZN15IStackAllocatorD0Ev;	.scl	2;	.type	32;	.endef
__ZN15IStackAllocatorD0Ev:
LFB180:
	.cfi_startproc
	pushl	%ebp
	.cfi_def_cfa_offset 8
	.cfi_offset 5, -8
	movl	%esp, %ebp
	.cfi_def_cfa_register 5
	subl	$24, %esp
	movl	8(%ebp), %eax
	movl	%eax, (%esp)
	call	__ZN15IStackAllocatorD1Ev
	movl	8(%ebp), %eax
	movl	%eax, (%esp)
	call	__ZdlPv
	leave
	.cfi_restore 5
	.cfi_def_cfa 4, 4
	ret
	.cfi_endproc
LFE180:
	.section	.text$_ZNK15CStackAllocator8getTotalEv,"x"
	.linkonce discard
	.align 2
	.globl	__ZNK15CStackAllocator8getTotalEv
	.def	__ZNK15CStackAllocator8getTotalEv;	.scl	2;	.type	32;	.endef
__ZNK15CStackAllocator8getTotalEv:
LFB181:
	.cfi_startproc
	pushl	%ebp
	.cfi_def_cfa_offset 8
	.cfi_offset 5, -8
	movl	%esp, %ebp
	.cfi_def_cfa_register 5
	movl	8(%ebp), %eax
	movl	8(%eax), %eax
	popl	%ebp
	.cfi_restore 5
	.cfi_def_cfa 4, 4
	ret
	.cfi_endproc
LFE181:
	.section	.text$_ZNK15CStackAllocator7getUsedEv,"x"
	.linkonce discard
	.align 2
	.globl	__ZNK15CStackAllocator7getUsedEv
	.def	__ZNK15CStackAllocator7getUsedEv;	.scl	2;	.type	32;	.endef
__ZNK15CStackAllocator7getUsedEv:
LFB182:
	.cfi_startproc
	pushl	%ebp
	.cfi_def_cfa_offset 8
	.cfi_offset 5, -8
	movl	%esp, %ebp
	.cfi_def_cfa_register 5
	movl	8(%ebp), %eax
	movl	12(%eax), %eax
	popl	%ebp
	.cfi_restore 5
	.cfi_def_cfa 4, 4
	ret
	.cfi_endproc
LFE182:
	.section	.text$_ZNK15CStackAllocator9getRemainEv,"x"
	.linkonce discard
	.align 2
	.globl	__ZNK15CStackAllocator9getRemainEv
	.def	__ZNK15CStackAllocator9getRemainEv;	.scl	2;	.type	32;	.endef
__ZNK15CStackAllocator9getRemainEv:
LFB183:
	.cfi_startproc
	pushl	%ebp
	.cfi_def_cfa_offset 8
	.cfi_offset 5, -8
	movl	%esp, %ebp
	.cfi_def_cfa_register 5
	movl	8(%ebp), %eax
	movl	8(%eax), %edx
	movl	8(%ebp), %eax
	movl	12(%eax), %eax
	subl	%eax, %edx
	movl	%edx, %eax
	popl	%ebp
	.cfi_restore 5
	.cfi_def_cfa 4, 4
	ret
	.cfi_endproc
LFE183:
	.section	.text$_ZNK15CStackAllocator7getBuffEv,"x"
	.linkonce discard
	.align 2
	.globl	__ZNK15CStackAllocator7getBuffEv
	.def	__ZNK15CStackAllocator7getBuffEv;	.scl	2;	.type	32;	.endef
__ZNK15CStackAllocator7getBuffEv:
LFB184:
	.cfi_startproc
	pushl	%ebp
	.cfi_def_cfa_offset 8
	.cfi_offset 5, -8
	movl	%esp, %ebp
	.cfi_def_cfa_register 5
	movl	8(%ebp), %eax
	movl	4(%eax), %eax
	popl	%ebp
	.cfi_restore 5
	.cfi_def_cfa 4, 4
	ret
	.cfi_endproc
LFE184:
	.section	.text$_ZNK15CStackAllocator10getNowPtrNEv,"x"
	.linkonce discard
	.align 2
	.globl	__ZNK15CStackAllocator10getNowPtrNEv
	.def	__ZNK15CStackAllocator10getNowPtrNEv;	.scl	2;	.type	32;	.endef
__ZNK15CStackAllocator10getNowPtrNEv:
LFB185:
	.cfi_startproc
	pushl	%ebp
	.cfi_def_cfa_offset 8
	.cfi_offset 5, -8
	movl	%esp, %ebp
	.cfi_def_cfa_register 5
	movl	8(%ebp), %eax
	movl	4(%eax), %edx
	movl	8(%ebp), %eax
	movl	12(%eax), %eax
	addl	%edx, %eax
	popl	%ebp
	.cfi_restore 5
	.cfi_def_cfa 4, 4
	ret
	.cfi_endproc
LFE185:
	.section	.text$_ZNK15CStackAllocator9getNowPtrEv,"x"
	.linkonce discard
	.align 2
	.globl	__ZNK15CStackAllocator9getNowPtrEv
	.def	__ZNK15CStackAllocator9getNowPtrEv;	.scl	2;	.type	32;	.endef
__ZNK15CStackAllocator9getNowPtrEv:
LFB186:
	.cfi_startproc
	pushl	%ebp
	.cfi_def_cfa_offset 8
	.cfi_offset 5, -8
	movl	%esp, %ebp
	.cfi_def_cfa_register 5
	subl	$4, %esp
	movl	8(%ebp), %eax
	movl	%eax, (%esp)
	call	__ZNK15CStackAllocator10getNowPtrNEv
	leave
	.cfi_restore 5
	.cfi_def_cfa 4, 4
	ret
	.cfi_endproc
LFE186:
	.section	.text$_ZNK15CStackAllocator10getMarkerNEv,"x"
	.linkonce discard
	.align 2
	.globl	__ZNK15CStackAllocator10getMarkerNEv
	.def	__ZNK15CStackAllocator10getMarkerNEv;	.scl	2;	.type	32;	.endef
__ZNK15CStackAllocator10getMarkerNEv:
LFB187:
	.cfi_startproc
	pushl	%ebp
	.cfi_def_cfa_offset 8
	.cfi_offset 5, -8
	movl	%esp, %ebp
	.cfi_def_cfa_register 5
	movl	8(%ebp), %eax
	movl	12(%eax), %eax
	popl	%ebp
	.cfi_restore 5
	.cfi_def_cfa 4, 4
	ret
	.cfi_endproc
LFE187:
	.section	.text$_ZNK15CStackAllocator9getMarkerEv,"x"
	.linkonce discard
	.align 2
	.globl	__ZNK15CStackAllocator9getMarkerEv
	.def	__ZNK15CStackAllocator9getMarkerEv;	.scl	2;	.type	32;	.endef
__ZNK15CStackAllocator9getMarkerEv:
LFB188:
	.cfi_startproc
	pushl	%ebp
	.cfi_def_cfa_offset 8
	.cfi_offset 5, -8
	movl	%esp, %ebp
	.cfi_def_cfa_register 5
	subl	$4, %esp
	movl	8(%ebp), %eax
	movl	%eax, (%esp)
	call	__ZNK15CStackAllocator10getMarkerNEv
	leave
	.cfi_restore 5
	.cfi_def_cfa 4, 4
	ret
	.cfi_endproc
LFE188:
	.section .rdata,"dr"
	.align 4
LC61:
	.ascii "stack overflow!(size=%d+align=%d, remain=%d)\12\0"
	.section	.text$_ZN15CStackAllocator6allocNEjj,"x"
	.linkonce discard
	.align 2
	.globl	__ZN15CStackAllocator6allocNEjj
	.def	__ZN15CStackAllocator6allocNEjj;	.scl	2;	.type	32;	.endef
__ZN15CStackAllocator6allocNEjj:
LFB189:
	.cfi_startproc
	pushl	%ebp
	.cfi_def_cfa_offset 8
	.cfi_offset 5, -8
	movl	%esp, %ebp
	.cfi_def_cfa_register 5
	subl	$40, %esp
	movl	8(%ebp), %eax
	movl	4(%eax), %eax
	movl	%eax, %edx
	movl	8(%ebp), %eax
	movl	12(%eax), %eax
	addl	%edx, %eax
	movl	%eax, -12(%ebp)
	cmpl	$0, 16(%ebp)
	je	L264
	movl	-12(%ebp), %eax
	movl	$0, %edx
	divl	16(%ebp)
	movl	%edx, %eax
	testl	%eax, %eax
	je	L265
	movl	-12(%ebp), %eax
	movl	$0, %edx
	divl	16(%ebp)
	movl	%edx, %eax
	movl	16(%ebp), %edx
	subl	%eax, %edx
	movl	%edx, %eax
	jmp	L267
L265:
	movl	$0, %eax
	jmp	L267
L264:
	movl	$0, %eax
L267:
	movl	%eax, -16(%ebp)
	movl	8(%ebp), %eax
	movl	12(%eax), %edx
	movl	-16(%ebp), %eax
	addl	%eax, %edx
	movl	12(%ebp), %eax
	addl	%edx, %eax
	movl	%eax, -20(%ebp)
	movl	8(%ebp), %eax
	movl	8(%eax), %eax
	cmpl	-20(%ebp), %eax
	jae	L268
	movl	8(%ebp), %eax
	movl	8(%eax), %edx
	movl	8(%ebp), %eax
	movl	12(%eax), %eax
	subl	%eax, %edx
	movl	%edx, %eax
	movl	%eax, 12(%esp)
	movl	-16(%ebp), %eax
	movl	%eax, 8(%esp)
	movl	12(%ebp), %eax
	movl	%eax, 4(%esp)
	movl	$LC61, (%esp)
	call	_printf
	movl	$0, %eax
	jmp	L269
L268:
	movl	-16(%ebp), %eax
	movl	-12(%ebp), %edx
	addl	%edx, %eax
	movl	%eax, -24(%ebp)
	movl	8(%ebp), %eax
	movl	-20(%ebp), %edx
	movl	%edx, 12(%eax)
	movl	-24(%ebp), %eax
L269:
	leave
	.cfi_restore 5
	.cfi_def_cfa 4, 4
	ret
	.cfi_endproc
LFE189:
	.section	.text$_ZN15CStackAllocator5allocEjj,"x"
	.linkonce discard
	.align 2
	.globl	__ZN15CStackAllocator5allocEjj
	.def	__ZN15CStackAllocator5allocEjj;	.scl	2;	.type	32;	.endef
__ZN15CStackAllocator5allocEjj:
LFB190:
	.cfi_startproc
	pushl	%ebp
	.cfi_def_cfa_offset 8
	.cfi_offset 5, -8
	movl	%esp, %ebp
	.cfi_def_cfa_register 5
	subl	$24, %esp
	movl	16(%ebp), %eax
	movl	%eax, 8(%esp)
	movl	12(%ebp), %eax
	movl	%eax, 4(%esp)
	movl	8(%ebp), %eax
	movl	%eax, (%esp)
	call	__ZN15CStackAllocator6allocNEjj
	leave
	.cfi_restore 5
	.cfi_def_cfa 4, 4
	ret
	.cfi_endproc
LFE190:
	.section	.text$_ZN15CStackAllocator5backNEj,"x"
	.linkonce discard
	.align 2
	.globl	__ZN15CStackAllocator5backNEj
	.def	__ZN15CStackAllocator5backNEj;	.scl	2;	.type	32;	.endef
__ZN15CStackAllocator5backNEj:
LFB191:
	.cfi_startproc
	pushl	%ebp
	.cfi_def_cfa_offset 8
	.cfi_offset 5, -8
	movl	%esp, %ebp
	.cfi_def_cfa_register 5
	movl	8(%ebp), %eax
	movl	12(%eax), %eax
	cmpl	12(%ebp), %eax
	ja	L273
	jmp	L272
L273:
	movl	8(%ebp), %eax
	movl	12(%ebp), %edx
	movl	%edx, 12(%eax)
L272:
	popl	%ebp
	.cfi_restore 5
	.cfi_def_cfa 4, 4
	ret
	.cfi_endproc
LFE191:
	.section	.text$_ZN15CStackAllocator4backEj,"x"
	.linkonce discard
	.align 2
	.globl	__ZN15CStackAllocator4backEj
	.def	__ZN15CStackAllocator4backEj;	.scl	2;	.type	32;	.endef
__ZN15CStackAllocator4backEj:
LFB192:
	.cfi_startproc
	pushl	%ebp
	.cfi_def_cfa_offset 8
	.cfi_offset 5, -8
	movl	%esp, %ebp
	.cfi_def_cfa_register 5
	subl	$8, %esp
	movl	12(%ebp), %eax
	movl	%eax, 4(%esp)
	movl	8(%ebp), %eax
	movl	%eax, (%esp)
	call	__ZN15CStackAllocator5backNEj
	leave
	.cfi_restore 5
	.cfi_def_cfa 4, 4
	ret
	.cfi_endproc
LFE192:
	.section	.text$_ZN15CStackAllocator5backNEPKv,"x"
	.linkonce discard
	.align 2
	.globl	__ZN15CStackAllocator5backNEPKv
	.def	__ZN15CStackAllocator5backNEPKv;	.scl	2;	.type	32;	.endef
__ZN15CStackAllocator5backNEPKv:
LFB193:
	.cfi_startproc
	pushl	%ebp
	.cfi_def_cfa_offset 8
	.cfi_offset 5, -8
	movl	%esp, %ebp
	.cfi_def_cfa_register 5
	subl	$40, %esp
	movl	12(%ebp), %edx
	movl	8(%ebp), %eax
	movl	4(%eax), %eax
	subl	%eax, %edx
	movl	%edx, %eax
	movl	%eax, -12(%ebp)
	movl	8(%ebp), %eax
	movl	(%eax), %eax
	addl	$24, %eax
	movl	(%eax), %eax
	movl	-12(%ebp), %edx
	movl	%edx, 4(%esp)
	movl	8(%ebp), %edx
	movl	%edx, (%esp)
	call	*%eax
	leave
	.cfi_restore 5
	.cfi_def_cfa 4, 4
	ret
	.cfi_endproc
LFE193:
	.section	.text$_ZN15CStackAllocator4backEPKv,"x"
	.linkonce discard
	.align 2
	.globl	__ZN15CStackAllocator4backEPKv
	.def	__ZN15CStackAllocator4backEPKv;	.scl	2;	.type	32;	.endef
__ZN15CStackAllocator4backEPKv:
LFB194:
	.cfi_startproc
	pushl	%ebp
	.cfi_def_cfa_offset 8
	.cfi_offset 5, -8
	movl	%esp, %ebp
	.cfi_def_cfa_register 5
	subl	$24, %esp
	movl	12(%ebp), %eax
	movl	%eax, 4(%esp)
	movl	8(%ebp), %eax
	movl	%eax, (%esp)
	call	__ZN15CStackAllocator5backNEPKv
	leave
	.cfi_restore 5
	.cfi_def_cfa 4, 4
	ret
	.cfi_endproc
LFE194:
	.section	.text$_ZN15CStackAllocator6clearNEv,"x"
	.linkonce discard
	.align 2
	.globl	__ZN15CStackAllocator6clearNEv
	.def	__ZN15CStackAllocator6clearNEv;	.scl	2;	.type	32;	.endef
__ZN15CStackAllocator6clearNEv:
LFB195:
	.cfi_startproc
	pushl	%ebp
	.cfi_def_cfa_offset 8
	.cfi_offset 5, -8
	movl	%esp, %ebp
	.cfi_def_cfa_register 5
	movl	8(%ebp), %eax
	movl	$0, 12(%eax)
	popl	%ebp
	.cfi_restore 5
	.cfi_def_cfa 4, 4
	ret
	.cfi_endproc
LFE195:
	.section	.text$_ZN15CStackAllocator5clearEv,"x"
	.linkonce discard
	.align 2
	.globl	__ZN15CStackAllocator5clearEv
	.def	__ZN15CStackAllocator5clearEv;	.scl	2;	.type	32;	.endef
__ZN15CStackAllocator5clearEv:
LFB196:
	.cfi_startproc
	pushl	%ebp
	.cfi_def_cfa_offset 8
	.cfi_offset 5, -8
	movl	%esp, %ebp
	.cfi_def_cfa_register 5
	subl	$4, %esp
	movl	8(%ebp), %eax
	movl	%eax, (%esp)
	call	__ZN15CStackAllocator6clearNEv
	leave
	.cfi_restore 5
	.cfi_def_cfa 4, 4
	ret
	.cfi_endproc
LFE196:
	.section	.text$_ZN15CStackAllocator8clearAllEv,"x"
	.linkonce discard
	.align 2
	.globl	__ZN15CStackAllocator8clearAllEv
	.def	__ZN15CStackAllocator8clearAllEv;	.scl	2;	.type	32;	.endef
__ZN15CStackAllocator8clearAllEv:
LFB197:
	.cfi_startproc
	pushl	%ebp
	.cfi_def_cfa_offset 8
	.cfi_offset 5, -8
	movl	%esp, %ebp
	.cfi_def_cfa_register 5
	subl	$4, %esp
	movl	8(%ebp), %eax
	movl	%eax, (%esp)
	call	__ZN15CStackAllocator6clearNEv
	leave
	.cfi_restore 5
	.cfi_def_cfa 4, 4
	ret
	.cfi_endproc
LFE197:
	.section	.text$_ZN15IStackAllocatorC2Ev,"x"
	.linkonce discard
	.align 2
	.globl	__ZN15IStackAllocatorC2Ev
	.def	__ZN15IStackAllocatorC2Ev;	.scl	2;	.type	32;	.endef
__ZN15IStackAllocatorC2Ev:
LFB200:
	.cfi_startproc
	pushl	%ebp
	.cfi_def_cfa_offset 8
	.cfi_offset 5, -8
	movl	%esp, %ebp
	.cfi_def_cfa_register 5
	movl	8(%ebp), %eax
	movl	$__ZTV15IStackAllocator+8, (%eax)
	popl	%ebp
	.cfi_restore 5
	.cfi_def_cfa 4, 4
	ret
	.cfi_endproc
LFE200:
	.section	.text$_ZN15CStackAllocatorC2EPvj,"x"
	.linkonce discard
	.align 2
	.globl	__ZN15CStackAllocatorC2EPvj
	.def	__ZN15CStackAllocatorC2EPvj;	.scl	2;	.type	32;	.endef
__ZN15CStackAllocatorC2EPvj:
LFB202:
	.cfi_startproc
	pushl	%ebp
	.cfi_def_cfa_offset 8
	.cfi_offset 5, -8
	movl	%esp, %ebp
	.cfi_def_cfa_register 5
	subl	$4, %esp
	movl	8(%ebp), %eax
	movl	%eax, (%esp)
	call	__ZN15IStackAllocatorC2Ev
	movl	8(%ebp), %eax
	movl	$__ZTV15CStackAllocator+8, (%eax)
	movl	8(%ebp), %eax
	movl	12(%ebp), %edx
	movl	%edx, 4(%eax)
	movl	8(%ebp), %eax
	movl	16(%ebp), %edx
	movl	%edx, 8(%eax)
	movl	8(%ebp), %eax
	movl	$0, 12(%eax)
	leave
	.cfi_restore 5
	.cfi_def_cfa 4, 4
	ret
	.cfi_endproc
LFE202:
	.section	.text$_ZN15CStackAllocatorD2Ev,"x"
	.linkonce discard
	.align 2
	.globl	__ZN15CStackAllocatorD2Ev
	.def	__ZN15CStackAllocatorD2Ev;	.scl	2;	.type	32;	.endef
__ZN15CStackAllocatorD2Ev:
LFB205:
	.cfi_startproc
	pushl	%ebp
	.cfi_def_cfa_offset 8
	.cfi_offset 5, -8
	movl	%esp, %ebp
	.cfi_def_cfa_register 5
	subl	$24, %esp
	movl	8(%ebp), %eax
	movl	$__ZTV15CStackAllocator+8, (%eax)
	movl	8(%ebp), %eax
	movl	%eax, (%esp)
	call	__ZN15IStackAllocatorD2Ev
	movl	$0, %eax
	testl	%eax, %eax
	je	L284
	movl	8(%ebp), %eax
	movl	%eax, (%esp)
	call	__ZdlPv
L284:
	leave
	.cfi_restore 5
	.cfi_def_cfa 4, 4
	ret
	.cfi_endproc
LFE205:
	.section	.text$_ZN15CStackAllocatorD1Ev,"x"
	.linkonce discard
	.align 2
	.globl	__ZN15CStackAllocatorD1Ev
	.def	__ZN15CStackAllocatorD1Ev;	.scl	2;	.type	32;	.endef
__ZN15CStackAllocatorD1Ev:
LFB206:
	.cfi_startproc
	pushl	%ebp
	.cfi_def_cfa_offset 8
	.cfi_offset 5, -8
	movl	%esp, %ebp
	.cfi_def_cfa_register 5
	subl	$24, %esp
	movl	8(%ebp), %eax
	movl	$__ZTV15CStackAllocator+8, (%eax)
	movl	8(%ebp), %eax
	movl	%eax, (%esp)
	call	__ZN15IStackAllocatorD2Ev
	movl	$0, %eax
	testl	%eax, %eax
	je	L287
	movl	8(%ebp), %eax
	movl	%eax, (%esp)
	call	__ZdlPv
L287:
	leave
	.cfi_restore 5
	.cfi_def_cfa 4, 4
	ret
	.cfi_endproc
LFE206:
	.section	.text$_ZN15CStackAllocatorD0Ev,"x"
	.linkonce discard
	.align 2
	.globl	__ZN15CStackAllocatorD0Ev
	.def	__ZN15CStackAllocatorD0Ev;	.scl	2;	.type	32;	.endef
__ZN15CStackAllocatorD0Ev:
LFB207:
	.cfi_startproc
	pushl	%ebp
	.cfi_def_cfa_offset 8
	.cfi_offset 5, -8
	movl	%esp, %ebp
	.cfi_def_cfa_register 5
	subl	$24, %esp
	movl	8(%ebp), %eax
	movl	%eax, (%esp)
	call	__ZN15CStackAllocatorD1Ev
	movl	8(%ebp), %eax
	movl	%eax, (%esp)
	call	__ZdlPv
	leave
	.cfi_restore 5
	.cfi_def_cfa 4, 4
	ret
	.cfi_endproc
LFE207:
	.section .rdata,"dr"
	.align 4
LC62:
	.ascii "placement new(size=%d, stack_allocator.marker=%d, align=%d)\12\0"
	.text
	.globl	__ZnwjR15CStackAllocatorj
	.def	__ZnwjR15CStackAllocatorj;	.scl	2;	.type	32;	.endef
__ZnwjR15CStackAllocatorj:
LFB208:
	.cfi_startproc
	.cfi_personality 0,___gxx_personality_v0
	.cfi_lsda 0,LLSDA208
	pushl	%ebp
	.cfi_def_cfa_offset 8
	.cfi_offset 5, -8
	movl	%esp, %ebp
	.cfi_def_cfa_register 5
	subl	$24, %esp
	movl	12(%ebp), %eax
	movl	(%eax), %eax
	addl	$16, %eax
	movl	(%eax), %eax
	movl	12(%ebp), %edx
	movl	%edx, (%esp)
LEHB66:
	call	*%eax
	movl	16(%ebp), %edx
	movl	%edx, 12(%esp)
	movl	%eax, 8(%esp)
	movl	8(%ebp), %eax
	movl	%eax, 4(%esp)
	movl	$LC62, (%esp)
	call	_printf
	movl	12(%ebp), %eax
	movl	(%eax), %eax
	addl	$20, %eax
	movl	(%eax), %eax
	movl	16(%ebp), %edx
	movl	%edx, 8(%esp)
	movl	8(%ebp), %edx
	movl	%edx, 4(%esp)
	movl	12(%ebp), %edx
	movl	%edx, (%esp)
	call	*%eax
LEHE66:
	jmp	L297
L296:
	cmpl	$-1, %edx
	je	L295
	movl	%eax, (%esp)
LEHB67:
	call	__Unwind_Resume
L295:
	movl	%eax, (%esp)
	call	___cxa_call_unexpected
LEHE67:
L297:
	leave
	.cfi_restore 5
	.cfi_def_cfa 4, 4
	ret
	.cfi_endproc
LFE208:
	.section	.gcc_except_table,"w"
	.align 4
LLSDA208:
	.byte	0xff
	.byte	0
	.uleb128 LLSDATT208-LLSDATTD208
LLSDATTD208:
	.byte	0x1
	.uleb128 LLSDACSE208-LLSDACSB208
LLSDACSB208:
	.uleb128 LEHB66-LFB208
	.uleb128 LEHE66-LEHB66
	.uleb128 L296-LFB208
	.uleb128 0x1
	.uleb128 LEHB67-LFB208
	.uleb128 LEHE67-LEHB67
	.uleb128 0
	.uleb128 0
LLSDACSE208:
	.byte	0x7f
	.byte	0
	.align 4
LLSDATT208:
	.byte	0
	.text
	.section .rdata,"dr"
	.align 4
LC63:
	.ascii "placement new[](size=%d, stack_allocator.marker=%d, align=%d)\12\0"
	.text
	.globl	__ZnajR15CStackAllocatorj
	.def	__ZnajR15CStackAllocatorj;	.scl	2;	.type	32;	.endef
__ZnajR15CStackAllocatorj:
LFB209:
	.cfi_startproc
	.cfi_personality 0,___gxx_personality_v0
	.cfi_lsda 0,LLSDA209
	pushl	%ebp
	.cfi_def_cfa_offset 8
	.cfi_offset 5, -8
	movl	%esp, %ebp
	.cfi_def_cfa_register 5
	subl	$24, %esp
	movl	12(%ebp), %eax
	movl	(%eax), %eax
	addl	$16, %eax
	movl	(%eax), %eax
	movl	12(%ebp), %edx
	movl	%edx, (%esp)
LEHB68:
	call	*%eax
	movl	16(%ebp), %edx
	movl	%edx, 12(%esp)
	movl	%eax, 8(%esp)
	movl	8(%ebp), %eax
	movl	%eax, 4(%esp)
	movl	$LC63, (%esp)
	call	_printf
	movl	12(%ebp), %eax
	movl	(%eax), %eax
	addl	$20, %eax
	movl	(%eax), %eax
	movl	16(%ebp), %edx
	movl	%edx, 8(%esp)
	movl	8(%ebp), %edx
	movl	%edx, 4(%esp)
	movl	12(%ebp), %edx
	movl	%edx, (%esp)
	call	*%eax
LEHE68:
	jmp	L303
L302:
	cmpl	$-1, %edx
	je	L301
	movl	%eax, (%esp)
LEHB69:
	call	__Unwind_Resume
L301:
	movl	%eax, (%esp)
	call	___cxa_call_unexpected
LEHE69:
L303:
	leave
	.cfi_restore 5
	.cfi_def_cfa 4, 4
	ret
	.cfi_endproc
LFE209:
	.section	.gcc_except_table,"w"
	.align 4
LLSDA209:
	.byte	0xff
	.byte	0
	.uleb128 LLSDATT209-LLSDATTD209
LLSDATTD209:
	.byte	0x1
	.uleb128 LLSDACSE209-LLSDACSB209
LLSDACSB209:
	.uleb128 LEHB68-LFB209
	.uleb128 LEHE68-LEHB68
	.uleb128 L302-LFB209
	.uleb128 0x1
	.uleb128 LEHB69-LFB209
	.uleb128 LEHE69-LEHB69
	.uleb128 0
	.uleb128 0
LLSDACSE209:
	.byte	0x7f
	.byte	0
	.align 4
LLSDATT209:
	.byte	0
	.text
	.section .rdata,"dr"
	.align 4
LC64:
	.ascii "placement delete(p=0x%p, stack_allocator.marker=%d)\12\0"
	.text
	.globl	__ZdlPvR15CStackAllocatorj
	.def	__ZdlPvR15CStackAllocatorj;	.scl	2;	.type	32;	.endef
__ZdlPvR15CStackAllocatorj:
LFB210:
	.cfi_startproc
	.cfi_personality 0,___gxx_personality_v0
	.cfi_lsda 0,LLSDA210
	pushl	%ebp
	.cfi_def_cfa_offset 8
	.cfi_offset 5, -8
	movl	%esp, %ebp
	.cfi_def_cfa_register 5
	subl	$24, %esp
	movl	12(%ebp), %eax
	movl	(%eax), %eax
	addl	$16, %eax
	movl	(%eax), %eax
	movl	12(%ebp), %edx
	movl	%edx, (%esp)
LEHB70:
	call	*%eax
	movl	%eax, 8(%esp)
	movl	8(%ebp), %eax
	movl	%eax, 4(%esp)
	movl	$LC64, (%esp)
	call	_printf
LEHE70:
	jmp	L308
L307:
	cmpl	$-1, %edx
	je	L306
	movl	%eax, (%esp)
LEHB71:
	call	__Unwind_Resume
L306:
	movl	%eax, (%esp)
	call	___cxa_call_unexpected
LEHE71:
L308:
	leave
	.cfi_restore 5
	.cfi_def_cfa 4, 4
	ret
	.cfi_endproc
LFE210:
	.section	.gcc_except_table,"w"
	.align 4
LLSDA210:
	.byte	0xff
	.byte	0
	.uleb128 LLSDATT210-LLSDATTD210
LLSDATTD210:
	.byte	0x1
	.uleb128 LLSDACSE210-LLSDACSB210
LLSDACSB210:
	.uleb128 LEHB70-LFB210
	.uleb128 LEHE70-LEHB70
	.uleb128 L307-LFB210
	.uleb128 0x1
	.uleb128 LEHB71-LFB210
	.uleb128 LEHE71-LEHB71
	.uleb128 0
	.uleb128 0
LLSDACSE210:
	.byte	0x7f
	.byte	0
	.align 4
LLSDATT210:
	.byte	0
	.text
	.section .rdata,"dr"
	.align 4
LC65:
	.ascii "placement delete[](p=0x%p, stack_allocator.marker=%d)\12\0"
	.text
	.globl	__ZdaPvR15CStackAllocatorj
	.def	__ZdaPvR15CStackAllocatorj;	.scl	2;	.type	32;	.endef
__ZdaPvR15CStackAllocatorj:
LFB211:
	.cfi_startproc
	.cfi_personality 0,___gxx_personality_v0
	.cfi_lsda 0,LLSDA211
	pushl	%ebp
	.cfi_def_cfa_offset 8
	.cfi_offset 5, -8
	movl	%esp, %ebp
	.cfi_def_cfa_register 5
	subl	$24, %esp
	movl	12(%ebp), %eax
	movl	(%eax), %eax
	addl	$16, %eax
	movl	(%eax), %eax
	movl	12(%ebp), %edx
	movl	%edx, (%esp)
LEHB72:
	call	*%eax
	movl	%eax, 8(%esp)
	movl	8(%ebp), %eax
	movl	%eax, 4(%esp)
	movl	$LC65, (%esp)
	call	_printf
LEHE72:
	jmp	L313
L312:
	cmpl	$-1, %edx
	je	L311
	movl	%eax, (%esp)
LEHB73:
	call	__Unwind_Resume
L311:
	movl	%eax, (%esp)
	call	___cxa_call_unexpected
LEHE73:
L313:
	leave
	.cfi_restore 5
	.cfi_def_cfa 4, 4
	ret
	.cfi_endproc
LFE211:
	.section	.gcc_except_table,"w"
	.align 4
LLSDA211:
	.byte	0xff
	.byte	0
	.uleb128 LLSDATT211-LLSDATTD211
LLSDATTD211:
	.byte	0x1
	.uleb128 LLSDACSE211-LLSDACSB211
LLSDACSB211:
	.uleb128 LEHB72-LFB211
	.uleb128 LEHE72-LEHB72
	.uleb128 L312-LFB211
	.uleb128 0x1
	.uleb128 LEHB73-LFB211
	.uleb128 LEHE73-LEHB73
	.uleb128 0
	.uleb128 0
LLSDACSE211:
	.byte	0x7f
	.byte	0
	.align 4
LLSDATT211:
	.byte	0
	.text
	.section .rdata,"dr"
	.align 4
LC66:
	.ascii "CTest4a::DefaultConstructor : name=\"%s\"\12\0"
	.section	.text$_ZN7CTest4aC1Ev,"x"
	.linkonce discard
	.align 2
	.globl	__ZN7CTest4aC1Ev
	.def	__ZN7CTest4aC1Ev;	.scl	2;	.type	32;	.endef
__ZN7CTest4aC1Ev:
LFB218:
	.cfi_startproc
	.cfi_personality 0,___gxx_personality_v0
	.cfi_lsda 0,LLSDA218
	pushl	%ebp
	.cfi_def_cfa_offset 8
	.cfi_offset 5, -8
	movl	%esp, %ebp
	.cfi_def_cfa_register 5
	pushl	%ebx
	subl	$20, %esp
	.cfi_offset 3, -12
	movl	$LC10, 4(%esp)
	movl	8(%ebp), %eax
	movl	%eax, (%esp)
LEHB74:
	call	__ZN7CTest4aC1EPKc
LEHE74:
	movl	8(%ebp), %eax
	movl	(%eax), %eax
	movl	%eax, 4(%esp)
	movl	$LC66, (%esp)
LEHB75:
	call	_printf
LEHE75:
	jmp	L317
L316:
	movl	%eax, %ebx
	movl	8(%ebp), %eax
	movl	%eax, (%esp)
	call	__ZN7CTest4aD1Ev
	movl	%ebx, %eax
	movl	%eax, (%esp)
LEHB76:
	call	__Unwind_Resume
LEHE76:
L317:
	addl	$20, %esp
	popl	%ebx
	.cfi_restore 3
	popl	%ebp
	.cfi_restore 5
	.cfi_def_cfa 4, 4
	ret
	.cfi_endproc
LFE218:
	.section	.gcc_except_table,"w"
LLSDA218:
	.byte	0xff
	.byte	0xff
	.byte	0x1
	.uleb128 LLSDACSE218-LLSDACSB218
LLSDACSB218:
	.uleb128 LEHB74-LFB218
	.uleb128 LEHE74-LEHB74
	.uleb128 0
	.uleb128 0
	.uleb128 LEHB75-LFB218
	.uleb128 LEHE75-LEHB75
	.uleb128 L316-LFB218
	.uleb128 0
	.uleb128 LEHB76-LFB218
	.uleb128 LEHE76-LEHB76
	.uleb128 0
	.uleb128 0
LLSDACSE218:
	.section	.text$_ZN7CTest4aC1Ev,"x"
	.linkonce discard
	.section .rdata,"dr"
	.align 4
LC67:
	.ascii "CTest4a::Constructor : name=\"%s\"\12\0"
	.section	.text$_ZN7CTest4aC1EPKc,"x"
	.linkonce discard
	.align 2
	.globl	__ZN7CTest4aC1EPKc
	.def	__ZN7CTest4aC1EPKc;	.scl	2;	.type	32;	.endef
__ZN7CTest4aC1EPKc:
LFB221:
	.cfi_startproc
	pushl	%ebp
	.cfi_def_cfa_offset 8
	.cfi_offset 5, -8
	movl	%esp, %ebp
	.cfi_def_cfa_register 5
	subl	$24, %esp
	movl	8(%ebp), %eax
	movl	12(%ebp), %edx
	movl	%edx, (%eax)
	movl	8(%ebp), %eax
	movl	(%eax), %eax
	movl	%eax, 4(%esp)
	movl	$LC67, (%esp)
	call	_printf
	leave
	.cfi_restore 5
	.cfi_def_cfa 4, 4
	ret
	.cfi_endproc
LFE221:
	.section .rdata,"dr"
	.align 4
LC68:
	.ascii "CTest4a::Destructor : name=\"%s\"\12\0"
	.section	.text$_ZN7CTest4aD1Ev,"x"
	.linkonce discard
	.align 2
	.globl	__ZN7CTest4aD1Ev
	.def	__ZN7CTest4aD1Ev;	.scl	2;	.type	32;	.endef
__ZN7CTest4aD1Ev:
LFB224:
	.cfi_startproc
	.cfi_personality 0,___gxx_personality_v0
	.cfi_lsda 0,LLSDA224
	pushl	%ebp
	.cfi_def_cfa_offset 8
	.cfi_offset 5, -8
	movl	%esp, %ebp
	.cfi_def_cfa_register 5
	subl	$24, %esp
	movl	8(%ebp), %eax
	movl	(%eax), %eax
	movl	%eax, 4(%esp)
	movl	$LC68, (%esp)
	call	_printf
	leave
	.cfi_restore 5
	.cfi_def_cfa 4, 4
	ret
	.cfi_endproc
LFE224:
	.section	.gcc_except_table,"w"
LLSDA224:
	.byte	0xff
	.byte	0xff
	.byte	0x1
	.uleb128 LLSDACSE224-LLSDACSB224
LLSDACSB224:
LLSDACSE224:
	.section	.text$_ZN7CTest4aD1Ev,"x"
	.linkonce discard
	.section	.text$_ZNK19CDualStackAllocator8getTotalEv,"x"
	.linkonce discard
	.align 2
	.globl	__ZNK19CDualStackAllocator8getTotalEv
	.def	__ZNK19CDualStackAllocator8getTotalEv;	.scl	2;	.type	32;	.endef
__ZNK19CDualStackAllocator8getTotalEv:
LFB225:
	.cfi_startproc
	pushl	%ebp
	.cfi_def_cfa_offset 8
	.cfi_offset 5, -8
	movl	%esp, %ebp
	.cfi_def_cfa_register 5
	movl	8(%ebp), %eax
	movl	8(%eax), %eax
	popl	%ebp
	.cfi_restore 5
	.cfi_def_cfa 4, 4
	ret
	.cfi_endproc
LFE225:
	.section	.text$_ZNK19CDualStackAllocator7getUsedEv,"x"
	.linkonce discard
	.align 2
	.globl	__ZNK19CDualStackAllocator7getUsedEv
	.def	__ZNK19CDualStackAllocator7getUsedEv;	.scl	2;	.type	32;	.endef
__ZNK19CDualStackAllocator7getUsedEv:
LFB226:
	.cfi_startproc
	pushl	%ebp
	.cfi_def_cfa_offset 8
	.cfi_offset 5, -8
	movl	%esp, %ebp
	.cfi_def_cfa_register 5
	movl	8(%ebp), %eax
	movl	12(%eax), %edx
	movl	8(%ebp), %eax
	movl	8(%eax), %eax
	addl	%eax, %edx
	movl	8(%ebp), %eax
	movl	16(%eax), %eax
	subl	%eax, %edx
	movl	%edx, %eax
	popl	%ebp
	.cfi_restore 5
	.cfi_def_cfa 4, 4
	ret
	.cfi_endproc
LFE226:
	.section	.text$_ZNK19CDualStackAllocator9getRemainEv,"x"
	.linkonce discard
	.align 2
	.globl	__ZNK19CDualStackAllocator9getRemainEv
	.def	__ZNK19CDualStackAllocator9getRemainEv;	.scl	2;	.type	32;	.endef
__ZNK19CDualStackAllocator9getRemainEv:
LFB227:
	.cfi_startproc
	pushl	%ebp
	.cfi_def_cfa_offset 8
	.cfi_offset 5, -8
	movl	%esp, %ebp
	.cfi_def_cfa_register 5
	movl	8(%ebp), %eax
	movl	16(%eax), %edx
	movl	8(%ebp), %eax
	movl	12(%eax), %eax
	subl	%eax, %edx
	movl	%edx, %eax
	popl	%ebp
	.cfi_restore 5
	.cfi_def_cfa 4, 4
	ret
	.cfi_endproc
LFE227:
	.section	.text$_ZNK19CDualStackAllocator17getDefaultOrderedEv,"x"
	.linkonce discard
	.align 2
	.globl	__ZNK19CDualStackAllocator17getDefaultOrderedEv
	.def	__ZNK19CDualStackAllocator17getDefaultOrderedEv;	.scl	2;	.type	32;	.endef
__ZNK19CDualStackAllocator17getDefaultOrderedEv:
LFB228:
	.cfi_startproc
	pushl	%ebp
	.cfi_def_cfa_offset 8
	.cfi_offset 5, -8
	movl	%esp, %ebp
	.cfi_def_cfa_register 5
	movl	8(%ebp), %eax
	movl	20(%eax), %eax
	popl	%ebp
	.cfi_restore 5
	.cfi_def_cfa 4, 4
	ret
	.cfi_endproc
LFE228:
	.section	.text$_ZN19CDualStackAllocator17setDefaultOrderedEN15IStackAllocator9E_ORDEREDE,"x"
	.linkonce discard
	.align 2
	.globl	__ZN19CDualStackAllocator17setDefaultOrderedEN15IStackAllocator9E_ORDEREDE
	.def	__ZN19CDualStackAllocator17setDefaultOrderedEN15IStackAllocator9E_ORDEREDE;	.scl	2;	.type	32;	.endef
__ZN19CDualStackAllocator17setDefaultOrderedEN15IStackAllocator9E_ORDEREDE:
LFB229:
	.cfi_startproc
	pushl	%ebp
	.cfi_def_cfa_offset 8
	.cfi_offset 5, -8
	movl	%esp, %ebp
	.cfi_def_cfa_register 5
	cmpl	$-1, 12(%ebp)
	jne	L330
	movl	$-1, %eax
	jmp	L331
L330:
	movl	$1, %eax
L331:
	movl	8(%ebp), %edx
	movl	%eax, 20(%edx)
	popl	%ebp
	.cfi_restore 5
	.cfi_def_cfa 4, 4
	ret
	.cfi_endproc
LFE229:
	.section	.text$_ZNK19CDualStackAllocator7getBuffEv,"x"
	.linkonce discard
	.align 2
	.globl	__ZNK19CDualStackAllocator7getBuffEv
	.def	__ZNK19CDualStackAllocator7getBuffEv;	.scl	2;	.type	32;	.endef
__ZNK19CDualStackAllocator7getBuffEv:
LFB230:
	.cfi_startproc
	pushl	%ebp
	.cfi_def_cfa_offset 8
	.cfi_offset 5, -8
	movl	%esp, %ebp
	.cfi_def_cfa_register 5
	movl	8(%ebp), %eax
	movl	4(%eax), %eax
	popl	%ebp
	.cfi_restore 5
	.cfi_def_cfa 4, 4
	ret
	.cfi_endproc
LFE230:
	.section	.text$_ZNK19CDualStackAllocator10getNowPtrNEv,"x"
	.linkonce discard
	.align 2
	.globl	__ZNK19CDualStackAllocator10getNowPtrNEv
	.def	__ZNK19CDualStackAllocator10getNowPtrNEv;	.scl	2;	.type	32;	.endef
__ZNK19CDualStackAllocator10getNowPtrNEv:
LFB231:
	.cfi_startproc
	pushl	%ebp
	.cfi_def_cfa_offset 8
	.cfi_offset 5, -8
	movl	%esp, %ebp
	.cfi_def_cfa_register 5
	movl	8(%ebp), %eax
	movl	4(%eax), %edx
	movl	8(%ebp), %eax
	movl	12(%eax), %eax
	addl	%edx, %eax
	popl	%ebp
	.cfi_restore 5
	.cfi_def_cfa 4, 4
	ret
	.cfi_endproc
LFE231:
	.section	.text$_ZNK19CDualStackAllocator10getNowPtrREv,"x"
	.linkonce discard
	.align 2
	.globl	__ZNK19CDualStackAllocator10getNowPtrREv
	.def	__ZNK19CDualStackAllocator10getNowPtrREv;	.scl	2;	.type	32;	.endef
__ZNK19CDualStackAllocator10getNowPtrREv:
LFB232:
	.cfi_startproc
	pushl	%ebp
	.cfi_def_cfa_offset 8
	.cfi_offset 5, -8
	movl	%esp, %ebp
	.cfi_def_cfa_register 5
	movl	8(%ebp), %eax
	movl	4(%eax), %edx
	movl	8(%ebp), %eax
	movl	16(%eax), %eax
	addl	%edx, %eax
	popl	%ebp
	.cfi_restore 5
	.cfi_def_cfa 4, 4
	ret
	.cfi_endproc
LFE232:
	.section	.text$_ZNK19CDualStackAllocator10getNowPtrDEv,"x"
	.linkonce discard
	.align 2
	.globl	__ZNK19CDualStackAllocator10getNowPtrDEv
	.def	__ZNK19CDualStackAllocator10getNowPtrDEv;	.scl	2;	.type	32;	.endef
__ZNK19CDualStackAllocator10getNowPtrDEv:
LFB233:
	.cfi_startproc
	pushl	%ebp
	.cfi_def_cfa_offset 8
	.cfi_offset 5, -8
	movl	%esp, %ebp
	.cfi_def_cfa_register 5
	subl	$24, %esp
	movl	8(%ebp), %eax
	movl	20(%eax), %eax
	movl	%eax, 4(%esp)
	movl	8(%ebp), %eax
	movl	%eax, (%esp)
	call	__ZNK19CDualStackAllocator9getNowPtrEN15IStackAllocator9E_ORDEREDE
	leave
	.cfi_restore 5
	.cfi_def_cfa 4, 4
	ret
	.cfi_endproc
LFE233:
	.section	.text$_ZNK19CDualStackAllocator9getNowPtrEN15IStackAllocator9E_ORDEREDE,"x"
	.linkonce discard
	.align 2
	.globl	__ZNK19CDualStackAllocator9getNowPtrEN15IStackAllocator9E_ORDEREDE
	.def	__ZNK19CDualStackAllocator9getNowPtrEN15IStackAllocator9E_ORDEREDE;	.scl	2;	.type	32;	.endef
__ZNK19CDualStackAllocator9getNowPtrEN15IStackAllocator9E_ORDEREDE:
LFB234:
	.cfi_startproc
	pushl	%ebp
	.cfi_def_cfa_offset 8
	.cfi_offset 5, -8
	movl	%esp, %ebp
	.cfi_def_cfa_register 5
	subl	$24, %esp
	cmpl	$0, 12(%ebp)
	jne	L341
	movl	8(%ebp), %eax
	movl	%eax, (%esp)
	call	__ZNK19CDualStackAllocator10getNowPtrDEv
	jmp	L342
L341:
	cmpl	$-1, 12(%ebp)
	jne	L343
	movl	8(%ebp), %eax
	movl	%eax, (%esp)
	call	__ZNK19CDualStackAllocator10getNowPtrREv
	jmp	L342
L343:
	movl	8(%ebp), %eax
	movl	%eax, (%esp)
	call	__ZNK19CDualStackAllocator10getNowPtrNEv
L342:
	leave
	.cfi_restore 5
	.cfi_def_cfa 4, 4
	ret
	.cfi_endproc
LFE234:
	.section	.text$_ZNK19CDualStackAllocator9getNowPtrEv,"x"
	.linkonce discard
	.align 2
	.globl	__ZNK19CDualStackAllocator9getNowPtrEv
	.def	__ZNK19CDualStackAllocator9getNowPtrEv;	.scl	2;	.type	32;	.endef
__ZNK19CDualStackAllocator9getNowPtrEv:
LFB235:
	.cfi_startproc
	pushl	%ebp
	.cfi_def_cfa_offset 8
	.cfi_offset 5, -8
	movl	%esp, %ebp
	.cfi_def_cfa_register 5
	subl	$24, %esp
	movl	8(%ebp), %eax
	movl	%eax, (%esp)
	call	__ZNK19CDualStackAllocator10getNowPtrDEv
	leave
	.cfi_restore 5
	.cfi_def_cfa 4, 4
	ret
	.cfi_endproc
LFE235:
	.section	.text$_ZNK19CDualStackAllocator10getMarkerNEv,"x"
	.linkonce discard
	.align 2
	.globl	__ZNK19CDualStackAllocator10getMarkerNEv
	.def	__ZNK19CDualStackAllocator10getMarkerNEv;	.scl	2;	.type	32;	.endef
__ZNK19CDualStackAllocator10getMarkerNEv:
LFB236:
	.cfi_startproc
	pushl	%ebp
	.cfi_def_cfa_offset 8
	.cfi_offset 5, -8
	movl	%esp, %ebp
	.cfi_def_cfa_register 5
	movl	8(%ebp), %eax
	movl	12(%eax), %eax
	popl	%ebp
	.cfi_restore 5
	.cfi_def_cfa 4, 4
	ret
	.cfi_endproc
LFE236:
	.section	.text$_ZNK19CDualStackAllocator10getMarkerREv,"x"
	.linkonce discard
	.align 2
	.globl	__ZNK19CDualStackAllocator10getMarkerREv
	.def	__ZNK19CDualStackAllocator10getMarkerREv;	.scl	2;	.type	32;	.endef
__ZNK19CDualStackAllocator10getMarkerREv:
LFB237:
	.cfi_startproc
	pushl	%ebp
	.cfi_def_cfa_offset 8
	.cfi_offset 5, -8
	movl	%esp, %ebp
	.cfi_def_cfa_register 5
	movl	8(%ebp), %eax
	movl	16(%eax), %eax
	popl	%ebp
	.cfi_restore 5
	.cfi_def_cfa 4, 4
	ret
	.cfi_endproc
LFE237:
	.section	.text$_ZNK19CDualStackAllocator10getMarkerDEv,"x"
	.linkonce discard
	.align 2
	.globl	__ZNK19CDualStackAllocator10getMarkerDEv
	.def	__ZNK19CDualStackAllocator10getMarkerDEv;	.scl	2;	.type	32;	.endef
__ZNK19CDualStackAllocator10getMarkerDEv:
LFB238:
	.cfi_startproc
	pushl	%ebp
	.cfi_def_cfa_offset 8
	.cfi_offset 5, -8
	movl	%esp, %ebp
	.cfi_def_cfa_register 5
	subl	$24, %esp
	movl	8(%ebp), %eax
	movl	20(%eax), %eax
	movl	%eax, 4(%esp)
	movl	8(%ebp), %eax
	movl	%eax, (%esp)
	call	__ZNK19CDualStackAllocator9getMarkerEN15IStackAllocator9E_ORDEREDE
	leave
	.cfi_restore 5
	.cfi_def_cfa 4, 4
	ret
	.cfi_endproc
LFE238:
	.section	.text$_ZNK19CDualStackAllocator9getMarkerEN15IStackAllocator9E_ORDEREDE,"x"
	.linkonce discard
	.align 2
	.globl	__ZNK19CDualStackAllocator9getMarkerEN15IStackAllocator9E_ORDEREDE
	.def	__ZNK19CDualStackAllocator9getMarkerEN15IStackAllocator9E_ORDEREDE;	.scl	2;	.type	32;	.endef
__ZNK19CDualStackAllocator9getMarkerEN15IStackAllocator9E_ORDEREDE:
LFB239:
	.cfi_startproc
	pushl	%ebp
	.cfi_def_cfa_offset 8
	.cfi_offset 5, -8
	movl	%esp, %ebp
	.cfi_def_cfa_register 5
	subl	$24, %esp
	cmpl	$0, 12(%ebp)
	jne	L355
	movl	8(%ebp), %eax
	movl	%eax, (%esp)
	call	__ZNK19CDualStackAllocator10getMarkerDEv
	jmp	L356
L355:
	cmpl	$-1, 12(%ebp)
	jne	L357
	movl	8(%ebp), %eax
	movl	%eax, (%esp)
	call	__ZNK19CDualStackAllocator10getMarkerREv
	jmp	L356
L357:
	movl	8(%ebp), %eax
	movl	%eax, (%esp)
	call	__ZNK19CDualStackAllocator10getMarkerNEv
L356:
	leave
	.cfi_restore 5
	.cfi_def_cfa 4, 4
	ret
	.cfi_endproc
LFE239:
	.section	.text$_ZNK19CDualStackAllocator9getMarkerEv,"x"
	.linkonce discard
	.align 2
	.globl	__ZNK19CDualStackAllocator9getMarkerEv
	.def	__ZNK19CDualStackAllocator9getMarkerEv;	.scl	2;	.type	32;	.endef
__ZNK19CDualStackAllocator9getMarkerEv:
LFB240:
	.cfi_startproc
	pushl	%ebp
	.cfi_def_cfa_offset 8
	.cfi_offset 5, -8
	movl	%esp, %ebp
	.cfi_def_cfa_register 5
	subl	$24, %esp
	movl	8(%ebp), %eax
	movl	%eax, (%esp)
	call	__ZNK19CDualStackAllocator10getMarkerDEv
	leave
	.cfi_restore 5
	.cfi_def_cfa 4, 4
	ret
	.cfi_endproc
LFE240:
	.section .rdata,"dr"
	.align 4
LC69:
	.ascii "normal-stack overflow!(size=%d+align=%d, remain=%d)\12\0"
	.section	.text$_ZN19CDualStackAllocator6allocNEjj,"x"
	.linkonce discard
	.align 2
	.globl	__ZN19CDualStackAllocator6allocNEjj
	.def	__ZN19CDualStackAllocator6allocNEjj;	.scl	2;	.type	32;	.endef
__ZN19CDualStackAllocator6allocNEjj:
LFB241:
	.cfi_startproc
	pushl	%ebp
	.cfi_def_cfa_offset 8
	.cfi_offset 5, -8
	movl	%esp, %ebp
	.cfi_def_cfa_register 5
	subl	$40, %esp
	movl	8(%ebp), %eax
	movl	4(%eax), %eax
	movl	%eax, %edx
	movl	8(%ebp), %eax
	movl	12(%eax), %eax
	addl	%edx, %eax
	movl	%eax, -12(%ebp)
	cmpl	$0, 16(%ebp)
	je	L363
	movl	-12(%ebp), %eax
	movl	$0, %edx
	divl	16(%ebp)
	movl	%edx, %eax
	testl	%eax, %eax
	je	L364
	movl	-12(%ebp), %eax
	movl	$0, %edx
	divl	16(%ebp)
	movl	%edx, %eax
	movl	16(%ebp), %edx
	subl	%eax, %edx
	movl	%edx, %eax
	jmp	L366
L364:
	movl	$0, %eax
	jmp	L366
L363:
	movl	$0, %eax
L366:
	movl	%eax, -16(%ebp)
	movl	8(%ebp), %eax
	movl	12(%eax), %edx
	movl	-16(%ebp), %eax
	addl	%eax, %edx
	movl	12(%ebp), %eax
	addl	%edx, %eax
	movl	%eax, -20(%ebp)
	movl	8(%ebp), %eax
	movl	16(%eax), %eax
	cmpl	-20(%ebp), %eax
	jae	L367
	movl	8(%ebp), %eax
	movl	16(%eax), %edx
	movl	8(%ebp), %eax
	movl	12(%eax), %eax
	subl	%eax, %edx
	movl	%edx, %eax
	movl	%eax, 12(%esp)
	movl	-16(%ebp), %eax
	movl	%eax, 8(%esp)
	movl	12(%ebp), %eax
	movl	%eax, 4(%esp)
	movl	$LC69, (%esp)
	call	_printf
	movl	$0, %eax
	jmp	L368
L367:
	movl	-16(%ebp), %eax
	movl	-12(%ebp), %edx
	addl	%edx, %eax
	movl	%eax, -24(%ebp)
	movl	8(%ebp), %eax
	movl	-20(%ebp), %edx
	movl	%edx, 12(%eax)
	movl	-24(%ebp), %eax
L368:
	leave
	.cfi_restore 5
	.cfi_def_cfa 4, 4
	ret
	.cfi_endproc
LFE241:
	.section .rdata,"dr"
	.align 4
LC70:
	.ascii "reversed-stack overflow!(size=%d+align=%d, remain=%d)\12\0"
	.section	.text$_ZN19CDualStackAllocator6allocREjj,"x"
	.linkonce discard
	.align 2
	.globl	__ZN19CDualStackAllocator6allocREjj
	.def	__ZN19CDualStackAllocator6allocREjj;	.scl	2;	.type	32;	.endef
__ZN19CDualStackAllocator6allocREjj:
LFB242:
	.cfi_startproc
	pushl	%ebp
	.cfi_def_cfa_offset 8
	.cfi_offset 5, -8
	movl	%esp, %ebp
	.cfi_def_cfa_register 5
	subl	$56, %esp
	movl	8(%ebp), %eax
	movl	4(%eax), %eax
	movl	%eax, %edx
	movl	8(%ebp), %eax
	movl	16(%eax), %eax
	addl	%edx, %eax
	movl	%eax, -12(%ebp)
	movl	12(%ebp), %eax
	movl	-12(%ebp), %edx
	subl	%eax, %edx
	movl	%edx, %eax
	movl	%eax, -16(%ebp)
	cmpl	$0, 16(%ebp)
	je	L370
	movl	-16(%ebp), %eax
	movl	$0, %edx
	divl	16(%ebp)
	movl	%edx, %eax
	jmp	L371
L370:
	movl	$0, %eax
L371:
	movl	%eax, -20(%ebp)
	movl	8(%ebp), %eax
	movl	16(%eax), %eax
	subl	12(%ebp), %eax
	subl	-20(%ebp), %eax
	movl	%eax, -24(%ebp)
	movl	8(%ebp), %eax
	movl	12(%eax), %eax
	cmpl	-24(%ebp), %eax
	ja	L372
	movl	8(%ebp), %eax
	movl	8(%eax), %eax
	cmpl	-24(%ebp), %eax
	jae	L373
L372:
	movl	8(%ebp), %eax
	movl	16(%eax), %edx
	movl	8(%ebp), %eax
	movl	12(%eax), %eax
	subl	%eax, %edx
	movl	%edx, %eax
	movl	%eax, 12(%esp)
	movl	-20(%ebp), %eax
	movl	%eax, 8(%esp)
	movl	12(%ebp), %eax
	movl	%eax, 4(%esp)
	movl	$LC70, (%esp)
	call	_printf
	movl	$0, %eax
	jmp	L374
L373:
	movl	12(%ebp), %eax
	movl	-12(%ebp), %edx
	subl	%eax, %edx
	movl	%edx, %eax
	subl	-20(%ebp), %eax
	movl	%eax, -28(%ebp)
	movl	8(%ebp), %eax
	movl	-24(%ebp), %edx
	movl	%edx, 16(%eax)
	movl	-28(%ebp), %eax
L374:
	leave
	.cfi_restore 5
	.cfi_def_cfa 4, 4
	ret
	.cfi_endproc
LFE242:
	.section	.text$_ZN19CDualStackAllocator6allocDEjj,"x"
	.linkonce discard
	.align 2
	.globl	__ZN19CDualStackAllocator6allocDEjj
	.def	__ZN19CDualStackAllocator6allocDEjj;	.scl	2;	.type	32;	.endef
__ZN19CDualStackAllocator6allocDEjj:
LFB243:
	.cfi_startproc
	pushl	%ebp
	.cfi_def_cfa_offset 8
	.cfi_offset 5, -8
	movl	%esp, %ebp
	.cfi_def_cfa_register 5
	subl	$24, %esp
	movl	8(%ebp), %eax
	movl	20(%eax), %eax
	movl	16(%ebp), %edx
	movl	%edx, 12(%esp)
	movl	12(%ebp), %edx
	movl	%edx, 8(%esp)
	movl	%eax, 4(%esp)
	movl	8(%ebp), %eax
	movl	%eax, (%esp)
	call	__ZN19CDualStackAllocator5allocEN15IStackAllocator9E_ORDEREDEjj
	leave
	.cfi_restore 5
	.cfi_def_cfa 4, 4
	ret
	.cfi_endproc
LFE243:
	.section	.text$_ZN19CDualStackAllocator5allocEN15IStackAllocator9E_ORDEREDEjj,"x"
	.linkonce discard
	.align 2
	.globl	__ZN19CDualStackAllocator5allocEN15IStackAllocator9E_ORDEREDEjj
	.def	__ZN19CDualStackAllocator5allocEN15IStackAllocator9E_ORDEREDEjj;	.scl	2;	.type	32;	.endef
__ZN19CDualStackAllocator5allocEN15IStackAllocator9E_ORDEREDEjj:
LFB244:
	.cfi_startproc
	pushl	%ebp
	.cfi_def_cfa_offset 8
	.cfi_offset 5, -8
	movl	%esp, %ebp
	.cfi_def_cfa_register 5
	subl	$24, %esp
	cmpl	$0, 12(%ebp)
	jne	L378
	movl	20(%ebp), %eax
	movl	%eax, 8(%esp)
	movl	16(%ebp), %eax
	movl	%eax, 4(%esp)
	movl	8(%ebp), %eax
	movl	%eax, (%esp)
	call	__ZN19CDualStackAllocator6allocDEjj
	jmp	L379
L378:
	cmpl	$-1, 12(%ebp)
	jne	L380
	movl	20(%ebp), %eax
	movl	%eax, 8(%esp)
	movl	16(%ebp), %eax
	movl	%eax, 4(%esp)
	movl	8(%ebp), %eax
	movl	%eax, (%esp)
	call	__ZN19CDualStackAllocator6allocREjj
	jmp	L379
L380:
	movl	20(%ebp), %eax
	movl	%eax, 8(%esp)
	movl	16(%ebp), %eax
	movl	%eax, 4(%esp)
	movl	8(%ebp), %eax
	movl	%eax, (%esp)
	call	__ZN19CDualStackAllocator6allocNEjj
L379:
	leave
	.cfi_restore 5
	.cfi_def_cfa 4, 4
	ret
	.cfi_endproc
LFE244:
	.section	.text$_ZN19CDualStackAllocator5allocEjj,"x"
	.linkonce discard
	.align 2
	.globl	__ZN19CDualStackAllocator5allocEjj
	.def	__ZN19CDualStackAllocator5allocEjj;	.scl	2;	.type	32;	.endef
__ZN19CDualStackAllocator5allocEjj:
LFB245:
	.cfi_startproc
	pushl	%ebp
	.cfi_def_cfa_offset 8
	.cfi_offset 5, -8
	movl	%esp, %ebp
	.cfi_def_cfa_register 5
	subl	$24, %esp
	movl	16(%ebp), %eax
	movl	%eax, 8(%esp)
	movl	12(%ebp), %eax
	movl	%eax, 4(%esp)
	movl	8(%ebp), %eax
	movl	%eax, (%esp)
	call	__ZN19CDualStackAllocator6allocDEjj
	leave
	.cfi_restore 5
	.cfi_def_cfa 4, 4
	ret
	.cfi_endproc
LFE245:
	.section	.text$_ZN19CDualStackAllocator5backNEj,"x"
	.linkonce discard
	.align 2
	.globl	__ZN19CDualStackAllocator5backNEj
	.def	__ZN19CDualStackAllocator5backNEj;	.scl	2;	.type	32;	.endef
__ZN19CDualStackAllocator5backNEj:
LFB246:
	.cfi_startproc
	pushl	%ebp
	.cfi_def_cfa_offset 8
	.cfi_offset 5, -8
	movl	%esp, %ebp
	.cfi_def_cfa_register 5
	movl	8(%ebp), %eax
	movl	16(%eax), %eax
	cmpl	12(%ebp), %eax
	jae	L386
	jmp	L385
L386:
	movl	8(%ebp), %eax
	movl	12(%ebp), %edx
	movl	%edx, 12(%eax)
L385:
	popl	%ebp
	.cfi_restore 5
	.cfi_def_cfa 4, 4
	ret
	.cfi_endproc
LFE246:
	.section	.text$_ZN19CDualStackAllocator5backNEPKv,"x"
	.linkonce discard
	.align 2
	.globl	__ZN19CDualStackAllocator5backNEPKv
	.def	__ZN19CDualStackAllocator5backNEPKv;	.scl	2;	.type	32;	.endef
__ZN19CDualStackAllocator5backNEPKv:
LFB247:
	.cfi_startproc
	pushl	%ebp
	.cfi_def_cfa_offset 8
	.cfi_offset 5, -8
	movl	%esp, %ebp
	.cfi_def_cfa_register 5
	subl	$24, %esp
	movl	12(%ebp), %edx
	movl	8(%ebp), %eax
	movl	4(%eax), %eax
	subl	%eax, %edx
	movl	%edx, %eax
	movl	%eax, -4(%ebp)
	movl	-4(%ebp), %eax
	movl	%eax, 4(%esp)
	movl	8(%ebp), %eax
	movl	%eax, (%esp)
	call	__ZN19CDualStackAllocator5backNEj
	leave
	.cfi_restore 5
	.cfi_def_cfa 4, 4
	ret
	.cfi_endproc
LFE247:
	.section	.text$_ZN19CDualStackAllocator5backREj,"x"
	.linkonce discard
	.align 2
	.globl	__ZN19CDualStackAllocator5backREj
	.def	__ZN19CDualStackAllocator5backREj;	.scl	2;	.type	32;	.endef
__ZN19CDualStackAllocator5backREj:
LFB248:
	.cfi_startproc
	pushl	%ebp
	.cfi_def_cfa_offset 8
	.cfi_offset 5, -8
	movl	%esp, %ebp
	.cfi_def_cfa_register 5
	movl	8(%ebp), %eax
	movl	12(%eax), %eax
	cmpl	12(%ebp), %eax
	ja	L390
	movl	8(%ebp), %eax
	movl	8(%eax), %eax
	cmpl	12(%ebp), %eax
	jae	L391
L390:
	jmp	L389
L391:
	movl	8(%ebp), %eax
	movl	12(%ebp), %edx
	movl	%edx, 16(%eax)
L389:
	popl	%ebp
	.cfi_restore 5
	.cfi_def_cfa 4, 4
	ret
	.cfi_endproc
LFE248:
	.section	.text$_ZN19CDualStackAllocator5backREPKv,"x"
	.linkonce discard
	.align 2
	.globl	__ZN19CDualStackAllocator5backREPKv
	.def	__ZN19CDualStackAllocator5backREPKv;	.scl	2;	.type	32;	.endef
__ZN19CDualStackAllocator5backREPKv:
LFB249:
	.cfi_startproc
	pushl	%ebp
	.cfi_def_cfa_offset 8
	.cfi_offset 5, -8
	movl	%esp, %ebp
	.cfi_def_cfa_register 5
	subl	$24, %esp
	movl	12(%ebp), %edx
	movl	8(%ebp), %eax
	movl	4(%eax), %eax
	subl	%eax, %edx
	movl	%edx, %eax
	movl	%eax, -4(%ebp)
	movl	-4(%ebp), %eax
	movl	%eax, 4(%esp)
	movl	8(%ebp), %eax
	movl	%eax, (%esp)
	call	__ZN19CDualStackAllocator5backREj
	leave
	.cfi_restore 5
	.cfi_def_cfa 4, 4
	ret
	.cfi_endproc
LFE249:
	.section	.text$_ZN19CDualStackAllocator5backDEj,"x"
	.linkonce discard
	.align 2
	.globl	__ZN19CDualStackAllocator5backDEj
	.def	__ZN19CDualStackAllocator5backDEj;	.scl	2;	.type	32;	.endef
__ZN19CDualStackAllocator5backDEj:
LFB250:
	.cfi_startproc
	pushl	%ebp
	.cfi_def_cfa_offset 8
	.cfi_offset 5, -8
	movl	%esp, %ebp
	.cfi_def_cfa_register 5
	subl	$24, %esp
	movl	8(%ebp), %eax
	movl	20(%eax), %eax
	movl	12(%ebp), %edx
	movl	%edx, 8(%esp)
	movl	%eax, 4(%esp)
	movl	8(%ebp), %eax
	movl	%eax, (%esp)
	call	__ZN19CDualStackAllocator4backEN15IStackAllocator9E_ORDEREDEj
	leave
	.cfi_restore 5
	.cfi_def_cfa 4, 4
	ret
	.cfi_endproc
LFE250:
	.section	.text$_ZN19CDualStackAllocator5backDEPKv,"x"
	.linkonce discard
	.align 2
	.globl	__ZN19CDualStackAllocator5backDEPKv
	.def	__ZN19CDualStackAllocator5backDEPKv;	.scl	2;	.type	32;	.endef
__ZN19CDualStackAllocator5backDEPKv:
LFB251:
	.cfi_startproc
	pushl	%ebp
	.cfi_def_cfa_offset 8
	.cfi_offset 5, -8
	movl	%esp, %ebp
	.cfi_def_cfa_register 5
	subl	$24, %esp
	movl	8(%ebp), %eax
	movl	20(%eax), %eax
	movl	12(%ebp), %edx
	movl	%edx, 8(%esp)
	movl	%eax, 4(%esp)
	movl	8(%ebp), %eax
	movl	%eax, (%esp)
	call	__ZN19CDualStackAllocator4backEN15IStackAllocator9E_ORDEREDEPKv
	leave
	.cfi_restore 5
	.cfi_def_cfa 4, 4
	ret
	.cfi_endproc
LFE251:
	.section	.text$_ZN19CDualStackAllocator4backEN15IStackAllocator9E_ORDEREDEj,"x"
	.linkonce discard
	.align 2
	.globl	__ZN19CDualStackAllocator4backEN15IStackAllocator9E_ORDEREDEj
	.def	__ZN19CDualStackAllocator4backEN15IStackAllocator9E_ORDEREDEj;	.scl	2;	.type	32;	.endef
__ZN19CDualStackAllocator4backEN15IStackAllocator9E_ORDEREDEj:
LFB252:
	.cfi_startproc
	pushl	%ebp
	.cfi_def_cfa_offset 8
	.cfi_offset 5, -8
	movl	%esp, %ebp
	.cfi_def_cfa_register 5
	subl	$24, %esp
	cmpl	$0, 12(%ebp)
	jne	L397
	movl	16(%ebp), %eax
	movl	%eax, 4(%esp)
	movl	8(%ebp), %eax
	movl	%eax, (%esp)
	call	__ZN19CDualStackAllocator5backDEj
	jmp	L396
L397:
	cmpl	$-1, 12(%ebp)
	jne	L399
	movl	16(%ebp), %eax
	movl	%eax, 4(%esp)
	movl	8(%ebp), %eax
	movl	%eax, (%esp)
	call	__ZN19CDualStackAllocator5backREj
	jmp	L396
L399:
	movl	16(%ebp), %eax
	movl	%eax, 4(%esp)
	movl	8(%ebp), %eax
	movl	%eax, (%esp)
	call	__ZN19CDualStackAllocator5backNEj
L396:
	leave
	.cfi_restore 5
	.cfi_def_cfa 4, 4
	ret
	.cfi_endproc
LFE252:
	.section	.text$_ZN19CDualStackAllocator4backEN15IStackAllocator9E_ORDEREDEPKv,"x"
	.linkonce discard
	.align 2
	.globl	__ZN19CDualStackAllocator4backEN15IStackAllocator9E_ORDEREDEPKv
	.def	__ZN19CDualStackAllocator4backEN15IStackAllocator9E_ORDEREDEPKv;	.scl	2;	.type	32;	.endef
__ZN19CDualStackAllocator4backEN15IStackAllocator9E_ORDEREDEPKv:
LFB253:
	.cfi_startproc
	pushl	%ebp
	.cfi_def_cfa_offset 8
	.cfi_offset 5, -8
	movl	%esp, %ebp
	.cfi_def_cfa_register 5
	subl	$24, %esp
	cmpl	$0, 12(%ebp)
	jne	L401
	movl	16(%ebp), %eax
	movl	%eax, 4(%esp)
	movl	8(%ebp), %eax
	movl	%eax, (%esp)
	call	__ZN19CDualStackAllocator5backDEPKv
	jmp	L400
L401:
	cmpl	$-1, 12(%ebp)
	jne	L403
	movl	16(%ebp), %eax
	movl	%eax, 4(%esp)
	movl	8(%ebp), %eax
	movl	%eax, (%esp)
	call	__ZN19CDualStackAllocator5backREPKv
	jmp	L400
L403:
	movl	16(%ebp), %eax
	movl	%eax, 4(%esp)
	movl	8(%ebp), %eax
	movl	%eax, (%esp)
	call	__ZN19CDualStackAllocator5backNEPKv
L400:
	leave
	.cfi_restore 5
	.cfi_def_cfa 4, 4
	ret
	.cfi_endproc
LFE253:
	.section	.text$_ZN19CDualStackAllocator4backEj,"x"
	.linkonce discard
	.align 2
	.globl	__ZN19CDualStackAllocator4backEj
	.def	__ZN19CDualStackAllocator4backEj;	.scl	2;	.type	32;	.endef
__ZN19CDualStackAllocator4backEj:
LFB254:
	.cfi_startproc
	pushl	%ebp
	.cfi_def_cfa_offset 8
	.cfi_offset 5, -8
	movl	%esp, %ebp
	.cfi_def_cfa_register 5
	subl	$24, %esp
	movl	12(%ebp), %eax
	movl	%eax, 4(%esp)
	movl	8(%ebp), %eax
	movl	%eax, (%esp)
	call	__ZN19CDualStackAllocator5backDEj
	leave
	.cfi_restore 5
	.cfi_def_cfa 4, 4
	ret
	.cfi_endproc
LFE254:
	.section	.text$_ZN19CDualStackAllocator4backEPKv,"x"
	.linkonce discard
	.align 2
	.globl	__ZN19CDualStackAllocator4backEPKv
	.def	__ZN19CDualStackAllocator4backEPKv;	.scl	2;	.type	32;	.endef
__ZN19CDualStackAllocator4backEPKv:
LFB255:
	.cfi_startproc
	pushl	%ebp
	.cfi_def_cfa_offset 8
	.cfi_offset 5, -8
	movl	%esp, %ebp
	.cfi_def_cfa_register 5
	subl	$24, %esp
	movl	12(%ebp), %eax
	movl	%eax, 4(%esp)
	movl	8(%ebp), %eax
	movl	%eax, (%esp)
	call	__ZN19CDualStackAllocator5backDEPKv
	leave
	.cfi_restore 5
	.cfi_def_cfa 4, 4
	ret
	.cfi_endproc
LFE255:
	.section	.text$_ZN19CDualStackAllocator6clearNEv,"x"
	.linkonce discard
	.align 2
	.globl	__ZN19CDualStackAllocator6clearNEv
	.def	__ZN19CDualStackAllocator6clearNEv;	.scl	2;	.type	32;	.endef
__ZN19CDualStackAllocator6clearNEv:
LFB256:
	.cfi_startproc
	pushl	%ebp
	.cfi_def_cfa_offset 8
	.cfi_offset 5, -8
	movl	%esp, %ebp
	.cfi_def_cfa_register 5
	movl	8(%ebp), %eax
	movl	$0, 12(%eax)
	popl	%ebp
	.cfi_restore 5
	.cfi_def_cfa 4, 4
	ret
	.cfi_endproc
LFE256:
	.section	.text$_ZN19CDualStackAllocator6clearREv,"x"
	.linkonce discard
	.align 2
	.globl	__ZN19CDualStackAllocator6clearREv
	.def	__ZN19CDualStackAllocator6clearREv;	.scl	2;	.type	32;	.endef
__ZN19CDualStackAllocator6clearREv:
LFB257:
	.cfi_startproc
	pushl	%ebp
	.cfi_def_cfa_offset 8
	.cfi_offset 5, -8
	movl	%esp, %ebp
	.cfi_def_cfa_register 5
	movl	8(%ebp), %eax
	movl	8(%eax), %edx
	movl	8(%ebp), %eax
	movl	%edx, 16(%eax)
	popl	%ebp
	.cfi_restore 5
	.cfi_def_cfa 4, 4
	ret
	.cfi_endproc
LFE257:
	.section	.text$_ZN19CDualStackAllocator6clearDEv,"x"
	.linkonce discard
	.align 2
	.globl	__ZN19CDualStackAllocator6clearDEv
	.def	__ZN19CDualStackAllocator6clearDEv;	.scl	2;	.type	32;	.endef
__ZN19CDualStackAllocator6clearDEv:
LFB258:
	.cfi_startproc
	pushl	%ebp
	.cfi_def_cfa_offset 8
	.cfi_offset 5, -8
	movl	%esp, %ebp
	.cfi_def_cfa_register 5
	subl	$24, %esp
	movl	8(%ebp), %eax
	movl	20(%eax), %eax
	movl	%eax, 4(%esp)
	movl	8(%ebp), %eax
	movl	%eax, (%esp)
	call	__ZN19CDualStackAllocator5clearEN15IStackAllocator9E_ORDEREDE
	leave
	.cfi_restore 5
	.cfi_def_cfa 4, 4
	ret
	.cfi_endproc
LFE258:
	.section	.text$_ZN19CDualStackAllocator7clearNREv,"x"
	.linkonce discard
	.align 2
	.globl	__ZN19CDualStackAllocator7clearNREv
	.def	__ZN19CDualStackAllocator7clearNREv;	.scl	2;	.type	32;	.endef
__ZN19CDualStackAllocator7clearNREv:
LFB259:
	.cfi_startproc
	pushl	%ebp
	.cfi_def_cfa_offset 8
	.cfi_offset 5, -8
	movl	%esp, %ebp
	.cfi_def_cfa_register 5
	subl	$4, %esp
	movl	8(%ebp), %eax
	movl	%eax, (%esp)
	call	__ZN19CDualStackAllocator6clearNEv
	movl	8(%ebp), %eax
	movl	%eax, (%esp)
	call	__ZN19CDualStackAllocator6clearREv
	leave
	.cfi_restore 5
	.cfi_def_cfa 4, 4
	ret
	.cfi_endproc
LFE259:
	.section	.text$_ZN19CDualStackAllocator5clearEN15IStackAllocator9E_ORDEREDE,"x"
	.linkonce discard
	.align 2
	.globl	__ZN19CDualStackAllocator5clearEN15IStackAllocator9E_ORDEREDE
	.def	__ZN19CDualStackAllocator5clearEN15IStackAllocator9E_ORDEREDE;	.scl	2;	.type	32;	.endef
__ZN19CDualStackAllocator5clearEN15IStackAllocator9E_ORDEREDE:
LFB260:
	.cfi_startproc
	pushl	%ebp
	.cfi_def_cfa_offset 8
	.cfi_offset 5, -8
	movl	%esp, %ebp
	.cfi_def_cfa_register 5
	subl	$24, %esp
	cmpl	$0, 12(%ebp)
	jne	L411
	movl	8(%ebp), %eax
	movl	%eax, (%esp)
	call	__ZN19CDualStackAllocator6clearDEv
	jmp	L410
L411:
	cmpl	$-1, 12(%ebp)
	jne	L413
	movl	8(%ebp), %eax
	movl	%eax, (%esp)
	call	__ZN19CDualStackAllocator6clearREv
	jmp	L410
L413:
	movl	8(%ebp), %eax
	movl	%eax, (%esp)
	call	__ZN19CDualStackAllocator6clearNEv
L410:
	leave
	.cfi_restore 5
	.cfi_def_cfa 4, 4
	ret
	.cfi_endproc
LFE260:
	.section	.text$_ZN19CDualStackAllocator5clearEv,"x"
	.linkonce discard
	.align 2
	.globl	__ZN19CDualStackAllocator5clearEv
	.def	__ZN19CDualStackAllocator5clearEv;	.scl	2;	.type	32;	.endef
__ZN19CDualStackAllocator5clearEv:
LFB261:
	.cfi_startproc
	pushl	%ebp
	.cfi_def_cfa_offset 8
	.cfi_offset 5, -8
	movl	%esp, %ebp
	.cfi_def_cfa_register 5
	subl	$24, %esp
	movl	8(%ebp), %eax
	movl	%eax, (%esp)
	call	__ZN19CDualStackAllocator6clearDEv
	leave
	.cfi_restore 5
	.cfi_def_cfa 4, 4
	ret
	.cfi_endproc
LFE261:
	.section	.text$_ZN19CDualStackAllocator8clearAllEv,"x"
	.linkonce discard
	.align 2
	.globl	__ZN19CDualStackAllocator8clearAllEv
	.def	__ZN19CDualStackAllocator8clearAllEv;	.scl	2;	.type	32;	.endef
__ZN19CDualStackAllocator8clearAllEv:
LFB262:
	.cfi_startproc
	pushl	%ebp
	.cfi_def_cfa_offset 8
	.cfi_offset 5, -8
	movl	%esp, %ebp
	.cfi_def_cfa_register 5
	subl	$4, %esp
	movl	8(%ebp), %eax
	movl	%eax, (%esp)
	call	__ZN19CDualStackAllocator7clearNREv
	leave
	.cfi_restore 5
	.cfi_def_cfa 4, 4
	ret
	.cfi_endproc
LFE262:
	.section	.text$_ZN19CDualStackAllocatorC2EPvjN15IStackAllocator9E_ORDEREDE,"x"
	.linkonce discard
	.align 2
	.globl	__ZN19CDualStackAllocatorC2EPvjN15IStackAllocator9E_ORDEREDE
	.def	__ZN19CDualStackAllocatorC2EPvjN15IStackAllocator9E_ORDEREDE;	.scl	2;	.type	32;	.endef
__ZN19CDualStackAllocatorC2EPvjN15IStackAllocator9E_ORDEREDE:
LFB264:
	.cfi_startproc
	pushl	%ebp
	.cfi_def_cfa_offset 8
	.cfi_offset 5, -8
	movl	%esp, %ebp
	.cfi_def_cfa_register 5
	subl	$8, %esp
	movl	8(%ebp), %eax
	movl	%eax, (%esp)
	call	__ZN15IStackAllocatorC2Ev
	movl	8(%ebp), %eax
	movl	$__ZTV19CDualStackAllocator+8, (%eax)
	movl	8(%ebp), %eax
	movl	12(%ebp), %edx
	movl	%edx, 4(%eax)
	movl	8(%ebp), %eax
	movl	16(%ebp), %edx
	movl	%edx, 8(%eax)
	movl	8(%ebp), %eax
	movl	$0, 12(%eax)
	movl	8(%ebp), %eax
	movl	16(%ebp), %edx
	movl	%edx, 16(%eax)
	movl	20(%ebp), %eax
	movl	%eax, 4(%esp)
	movl	8(%ebp), %eax
	movl	%eax, (%esp)
	call	__ZN19CDualStackAllocator17setDefaultOrderedEN15IStackAllocator9E_ORDEREDE
	leave
	.cfi_restore 5
	.cfi_def_cfa 4, 4
	ret
	.cfi_endproc
LFE264:
	.section	.text$_ZN19CDualStackAllocatorD2Ev,"x"
	.linkonce discard
	.align 2
	.globl	__ZN19CDualStackAllocatorD2Ev
	.def	__ZN19CDualStackAllocatorD2Ev;	.scl	2;	.type	32;	.endef
__ZN19CDualStackAllocatorD2Ev:
LFB267:
	.cfi_startproc
	pushl	%ebp
	.cfi_def_cfa_offset 8
	.cfi_offset 5, -8
	movl	%esp, %ebp
	.cfi_def_cfa_register 5
	subl	$24, %esp
	movl	8(%ebp), %eax
	movl	$__ZTV19CDualStackAllocator+8, (%eax)
	movl	8(%ebp), %eax
	movl	%eax, (%esp)
	call	__ZN15IStackAllocatorD2Ev
	movl	$0, %eax
	testl	%eax, %eax
	je	L417
	movl	8(%ebp), %eax
	movl	%eax, (%esp)
	call	__ZdlPv
L417:
	leave
	.cfi_restore 5
	.cfi_def_cfa 4, 4
	ret
	.cfi_endproc
LFE267:
	.section	.text$_ZN19CDualStackAllocatorD1Ev,"x"
	.linkonce discard
	.align 2
	.globl	__ZN19CDualStackAllocatorD1Ev
	.def	__ZN19CDualStackAllocatorD1Ev;	.scl	2;	.type	32;	.endef
__ZN19CDualStackAllocatorD1Ev:
LFB268:
	.cfi_startproc
	pushl	%ebp
	.cfi_def_cfa_offset 8
	.cfi_offset 5, -8
	movl	%esp, %ebp
	.cfi_def_cfa_register 5
	subl	$24, %esp
	movl	8(%ebp), %eax
	movl	$__ZTV19CDualStackAllocator+8, (%eax)
	movl	8(%ebp), %eax
	movl	%eax, (%esp)
	call	__ZN15IStackAllocatorD2Ev
	movl	$0, %eax
	testl	%eax, %eax
	je	L420
	movl	8(%ebp), %eax
	movl	%eax, (%esp)
	call	__ZdlPv
L420:
	leave
	.cfi_restore 5
	.cfi_def_cfa 4, 4
	ret
	.cfi_endproc
LFE268:
	.section	.text$_ZN19CDualStackAllocatorD0Ev,"x"
	.linkonce discard
	.align 2
	.globl	__ZN19CDualStackAllocatorD0Ev
	.def	__ZN19CDualStackAllocatorD0Ev;	.scl	2;	.type	32;	.endef
__ZN19CDualStackAllocatorD0Ev:
LFB269:
	.cfi_startproc
	pushl	%ebp
	.cfi_def_cfa_offset 8
	.cfi_offset 5, -8
	movl	%esp, %ebp
	.cfi_def_cfa_register 5
	subl	$24, %esp
	movl	8(%ebp), %eax
	movl	%eax, (%esp)
	call	__ZN19CDualStackAllocatorD1Ev
	movl	8(%ebp), %eax
	movl	%eax, (%esp)
	call	__ZdlPv
	leave
	.cfi_restore 5
	.cfi_def_cfa 4, 4
	ret
	.cfi_endproc
LFE269:
	.section .rdata,"dr"
	.align 4
LC71:
	.ascii "placement new(size=%d, dual_allocator.marker=%d,%d, align=%d, ordered=%d)\12\0"
	.text
	.globl	__ZnwjR19CDualStackAllocatorjN15IStackAllocator9E_ORDEREDE
	.def	__ZnwjR19CDualStackAllocatorjN15IStackAllocator9E_ORDEREDE;	.scl	2;	.type	32;	.endef
__ZnwjR19CDualStackAllocatorjN15IStackAllocator9E_ORDEREDE:
LFB270:
	.cfi_startproc
	.cfi_personality 0,___gxx_personality_v0
	.cfi_lsda 0,LLSDA270
	pushl	%ebp
	.cfi_def_cfa_offset 8
	.cfi_offset 5, -8
	movl	%esp, %ebp
	.cfi_def_cfa_register 5
	pushl	%ebx
	subl	$36, %esp
	.cfi_offset 3, -12
	movl	12(%ebp), %eax
	movl	%eax, (%esp)
	call	__ZNK19CDualStackAllocator10getMarkerREv
	movl	%eax, %ebx
	movl	12(%ebp), %eax
	movl	%eax, (%esp)
	call	__ZNK19CDualStackAllocator10getMarkerNEv
	movl	20(%ebp), %edx
	movl	%edx, 20(%esp)
	movl	16(%ebp), %edx
	movl	%edx, 16(%esp)
	movl	%ebx, 12(%esp)
	movl	%eax, 8(%esp)
	movl	8(%ebp), %eax
	movl	%eax, 4(%esp)
	movl	$LC71, (%esp)
LEHB77:
	call	_printf
	movl	16(%ebp), %eax
	movl	%eax, 12(%esp)
	movl	8(%ebp), %eax
	movl	%eax, 8(%esp)
	movl	20(%ebp), %eax
	movl	%eax, 4(%esp)
	movl	12(%ebp), %eax
	movl	%eax, (%esp)
	call	__ZN19CDualStackAllocator5allocEN15IStackAllocator9E_ORDEREDEjj
LEHE77:
	jmp	L430
L429:
	cmpl	$-1, %edx
	je	L428
	movl	%eax, (%esp)
LEHB78:
	call	__Unwind_Resume
L428:
	movl	%eax, (%esp)
	call	___cxa_call_unexpected
LEHE78:
L430:
	addl	$36, %esp
	popl	%ebx
	.cfi_restore 3
	popl	%ebp
	.cfi_restore 5
	.cfi_def_cfa 4, 4
	ret
	.cfi_endproc
LFE270:
	.section	.gcc_except_table,"w"
	.align 4
LLSDA270:
	.byte	0xff
	.byte	0
	.uleb128 LLSDATT270-LLSDATTD270
LLSDATTD270:
	.byte	0x1
	.uleb128 LLSDACSE270-LLSDACSB270
LLSDACSB270:
	.uleb128 LEHB77-LFB270
	.uleb128 LEHE77-LEHB77
	.uleb128 L429-LFB270
	.uleb128 0x1
	.uleb128 LEHB78-LFB270
	.uleb128 LEHE78-LEHB78
	.uleb128 0
	.uleb128 0
LLSDACSE270:
	.byte	0x7f
	.byte	0
	.align 4
LLSDATT270:
	.byte	0
	.text
	.section .rdata,"dr"
	.align 4
LC72:
	.ascii "placement new(size=%d, dual_allocator.marker=%d,%d, (align=%d), ordered=%d)\12\0"
	.text
	.globl	__ZnwjR19CDualStackAllocatorN15IStackAllocator9E_ORDEREDE
	.def	__ZnwjR19CDualStackAllocatorN15IStackAllocator9E_ORDEREDE;	.scl	2;	.type	32;	.endef
__ZnwjR19CDualStackAllocatorN15IStackAllocator9E_ORDEREDE:
LFB271:
	.cfi_startproc
	.cfi_personality 0,___gxx_personality_v0
	.cfi_lsda 0,LLSDA271
	pushl	%ebp
	.cfi_def_cfa_offset 8
	.cfi_offset 5, -8
	movl	%esp, %ebp
	.cfi_def_cfa_register 5
	pushl	%ebx
	subl	$52, %esp
	.cfi_offset 3, -12
	movl	$4, -12(%ebp)
	movl	12(%ebp), %eax
	movl	%eax, (%esp)
	call	__ZNK19CDualStackAllocator10getMarkerREv
	movl	%eax, %ebx
	movl	12(%ebp), %eax
	movl	%eax, (%esp)
	call	__ZNK19CDualStackAllocator10getMarkerNEv
	movl	16(%ebp), %edx
	movl	%edx, 20(%esp)
	movl	$4, 16(%esp)
	movl	%ebx, 12(%esp)
	movl	%eax, 8(%esp)
	movl	8(%ebp), %eax
	movl	%eax, 4(%esp)
	movl	$LC72, (%esp)
LEHB79:
	call	_printf
	movl	$4, 12(%esp)
	movl	8(%ebp), %eax
	movl	%eax, 8(%esp)
	movl	16(%ebp), %eax
	movl	%eax, 4(%esp)
	movl	12(%ebp), %eax
	movl	%eax, (%esp)
	call	__ZN19CDualStackAllocator5allocEN15IStackAllocator9E_ORDEREDEjj
LEHE79:
	jmp	L436
L435:
	cmpl	$-1, %edx
	je	L434
	movl	%eax, (%esp)
LEHB80:
	call	__Unwind_Resume
L434:
	movl	%eax, (%esp)
	call	___cxa_call_unexpected
LEHE80:
L436:
	addl	$52, %esp
	popl	%ebx
	.cfi_restore 3
	popl	%ebp
	.cfi_restore 5
	.cfi_def_cfa 4, 4
	ret
	.cfi_endproc
LFE271:
	.section	.gcc_except_table,"w"
	.align 4
LLSDA271:
	.byte	0xff
	.byte	0
	.uleb128 LLSDATT271-LLSDATTD271
LLSDATTD271:
	.byte	0x1
	.uleb128 LLSDACSE271-LLSDACSB271
LLSDACSB271:
	.uleb128 LEHB79-LFB271
	.uleb128 LEHE79-LEHB79
	.uleb128 L435-LFB271
	.uleb128 0x1
	.uleb128 LEHB80-LFB271
	.uleb128 LEHE80-LEHB80
	.uleb128 0
	.uleb128 0
LLSDACSE271:
	.byte	0x7f
	.byte	0
	.align 4
LLSDATT271:
	.byte	0
	.text
	.globl	__ZnajR19CDualStackAllocatorjN15IStackAllocator9E_ORDEREDE
	.def	__ZnajR19CDualStackAllocatorjN15IStackAllocator9E_ORDEREDE;	.scl	2;	.type	32;	.endef
__ZnajR19CDualStackAllocatorjN15IStackAllocator9E_ORDEREDE:
LFB272:
	.cfi_startproc
	.cfi_personality 0,___gxx_personality_v0
	.cfi_lsda 0,LLSDA272
	pushl	%ebp
	.cfi_def_cfa_offset 8
	.cfi_offset 5, -8
	movl	%esp, %ebp
	.cfi_def_cfa_register 5
	pushl	%ebx
	subl	$36, %esp
	.cfi_offset 3, -12
	movl	12(%ebp), %eax
	movl	%eax, (%esp)
	call	__ZNK19CDualStackAllocator10getMarkerREv
	movl	%eax, %ebx
	movl	12(%ebp), %eax
	movl	%eax, (%esp)
	call	__ZNK19CDualStackAllocator10getMarkerNEv
	movl	20(%ebp), %edx
	movl	%edx, 20(%esp)
	movl	16(%ebp), %edx
	movl	%edx, 16(%esp)
	movl	%ebx, 12(%esp)
	movl	%eax, 8(%esp)
	movl	8(%ebp), %eax
	movl	%eax, 4(%esp)
	movl	$LC71, (%esp)
LEHB81:
	call	_printf
	movl	16(%ebp), %eax
	movl	%eax, 12(%esp)
	movl	8(%ebp), %eax
	movl	%eax, 8(%esp)
	movl	20(%ebp), %eax
	movl	%eax, 4(%esp)
	movl	12(%ebp), %eax
	movl	%eax, (%esp)
	call	__ZN19CDualStackAllocator5allocEN15IStackAllocator9E_ORDEREDEjj
LEHE81:
	jmp	L442
L441:
	cmpl	$-1, %edx
	je	L440
	movl	%eax, (%esp)
LEHB82:
	call	__Unwind_Resume
L440:
	movl	%eax, (%esp)
	call	___cxa_call_unexpected
LEHE82:
L442:
	addl	$36, %esp
	popl	%ebx
	.cfi_restore 3
	popl	%ebp
	.cfi_restore 5
	.cfi_def_cfa 4, 4
	ret
	.cfi_endproc
LFE272:
	.section	.gcc_except_table,"w"
	.align 4
LLSDA272:
	.byte	0xff
	.byte	0
	.uleb128 LLSDATT272-LLSDATTD272
LLSDATTD272:
	.byte	0x1
	.uleb128 LLSDACSE272-LLSDACSB272
LLSDACSB272:
	.uleb128 LEHB81-LFB272
	.uleb128 LEHE81-LEHB81
	.uleb128 L441-LFB272
	.uleb128 0x1
	.uleb128 LEHB82-LFB272
	.uleb128 LEHE82-LEHB82
	.uleb128 0
	.uleb128 0
LLSDACSE272:
	.byte	0x7f
	.byte	0
	.align 4
LLSDATT272:
	.byte	0
	.text
	.globl	__ZnajR19CDualStackAllocatorN15IStackAllocator9E_ORDEREDE
	.def	__ZnajR19CDualStackAllocatorN15IStackAllocator9E_ORDEREDE;	.scl	2;	.type	32;	.endef
__ZnajR19CDualStackAllocatorN15IStackAllocator9E_ORDEREDE:
LFB273:
	.cfi_startproc
	.cfi_personality 0,___gxx_personality_v0
	.cfi_lsda 0,LLSDA273
	pushl	%ebp
	.cfi_def_cfa_offset 8
	.cfi_offset 5, -8
	movl	%esp, %ebp
	.cfi_def_cfa_register 5
	pushl	%ebx
	subl	$52, %esp
	.cfi_offset 3, -12
	movl	$4, -12(%ebp)
	movl	12(%ebp), %eax
	movl	%eax, (%esp)
	call	__ZNK19CDualStackAllocator10getMarkerREv
	movl	%eax, %ebx
	movl	12(%ebp), %eax
	movl	%eax, (%esp)
	call	__ZNK19CDualStackAllocator10getMarkerNEv
	movl	16(%ebp), %edx
	movl	%edx, 20(%esp)
	movl	$4, 16(%esp)
	movl	%ebx, 12(%esp)
	movl	%eax, 8(%esp)
	movl	8(%ebp), %eax
	movl	%eax, 4(%esp)
	movl	$LC72, (%esp)
LEHB83:
	call	_printf
	movl	$4, 12(%esp)
	movl	8(%ebp), %eax
	movl	%eax, 8(%esp)
	movl	16(%ebp), %eax
	movl	%eax, 4(%esp)
	movl	12(%ebp), %eax
	movl	%eax, (%esp)
	call	__ZN19CDualStackAllocator5allocEN15IStackAllocator9E_ORDEREDEjj
LEHE83:
	jmp	L448
L447:
	cmpl	$-1, %edx
	je	L446
	movl	%eax, (%esp)
LEHB84:
	call	__Unwind_Resume
L446:
	movl	%eax, (%esp)
	call	___cxa_call_unexpected
LEHE84:
L448:
	addl	$52, %esp
	popl	%ebx
	.cfi_restore 3
	popl	%ebp
	.cfi_restore 5
	.cfi_def_cfa 4, 4
	ret
	.cfi_endproc
LFE273:
	.section	.gcc_except_table,"w"
	.align 4
LLSDA273:
	.byte	0xff
	.byte	0
	.uleb128 LLSDATT273-LLSDATTD273
LLSDATTD273:
	.byte	0x1
	.uleb128 LLSDACSE273-LLSDACSB273
LLSDACSB273:
	.uleb128 LEHB83-LFB273
	.uleb128 LEHE83-LEHB83
	.uleb128 L447-LFB273
	.uleb128 0x1
	.uleb128 LEHB84-LFB273
	.uleb128 LEHE84-LEHB84
	.uleb128 0
	.uleb128 0
LLSDACSE273:
	.byte	0x7f
	.byte	0
	.align 4
LLSDATT273:
	.byte	0
	.text
	.section .rdata,"dr"
	.align 4
LC73:
	.ascii "placement delete(p=0x%p, dual_allocator.marker=%d,%d, align)\12\0"
	.text
	.globl	__ZdlPvR19CDualStackAllocatorjN15IStackAllocator9E_ORDEREDE
	.def	__ZdlPvR19CDualStackAllocatorjN15IStackAllocator9E_ORDEREDE;	.scl	2;	.type	32;	.endef
__ZdlPvR19CDualStackAllocatorjN15IStackAllocator9E_ORDEREDE:
LFB274:
	.cfi_startproc
	.cfi_personality 0,___gxx_personality_v0
	.cfi_lsda 0,LLSDA274
	pushl	%ebp
	.cfi_def_cfa_offset 8
	.cfi_offset 5, -8
	movl	%esp, %ebp
	.cfi_def_cfa_register 5
	pushl	%ebx
	subl	$20, %esp
	.cfi_offset 3, -12
	movl	12(%ebp), %eax
	movl	%eax, (%esp)
	call	__ZNK19CDualStackAllocator10getMarkerREv
	movl	%eax, %ebx
	movl	12(%ebp), %eax
	movl	%eax, (%esp)
	call	__ZNK19CDualStackAllocator10getMarkerNEv
	movl	%ebx, 12(%esp)
	movl	%eax, 8(%esp)
	movl	8(%ebp), %eax
	movl	%eax, 4(%esp)
	movl	$LC73, (%esp)
LEHB85:
	call	_printf
LEHE85:
	jmp	L453
L452:
	cmpl	$-1, %edx
	je	L451
	movl	%eax, (%esp)
LEHB86:
	call	__Unwind_Resume
L451:
	movl	%eax, (%esp)
	call	___cxa_call_unexpected
LEHE86:
L453:
	addl	$20, %esp
	popl	%ebx
	.cfi_restore 3
	popl	%ebp
	.cfi_restore 5
	.cfi_def_cfa 4, 4
	ret
	.cfi_endproc
LFE274:
	.section	.gcc_except_table,"w"
	.align 4
LLSDA274:
	.byte	0xff
	.byte	0
	.uleb128 LLSDATT274-LLSDATTD274
LLSDATTD274:
	.byte	0x1
	.uleb128 LLSDACSE274-LLSDACSB274
LLSDACSB274:
	.uleb128 LEHB85-LFB274
	.uleb128 LEHE85-LEHB85
	.uleb128 L452-LFB274
	.uleb128 0x1
	.uleb128 LEHB86-LFB274
	.uleb128 LEHE86-LEHB86
	.uleb128 0
	.uleb128 0
LLSDACSE274:
	.byte	0x7f
	.byte	0
	.align 4
LLSDATT274:
	.byte	0
	.text
	.section .rdata,"dr"
	.align 4
LC74:
	.ascii "placement delete(p=0x%p, dual_allocator.marker=%d,%d)\12\0"
	.text
	.globl	__ZdlPvR19CDualStackAllocatorN15IStackAllocator9E_ORDEREDE
	.def	__ZdlPvR19CDualStackAllocatorN15IStackAllocator9E_ORDEREDE;	.scl	2;	.type	32;	.endef
__ZdlPvR19CDualStackAllocatorN15IStackAllocator9E_ORDEREDE:
LFB275:
	.cfi_startproc
	.cfi_personality 0,___gxx_personality_v0
	.cfi_lsda 0,LLSDA275
	pushl	%ebp
	.cfi_def_cfa_offset 8
	.cfi_offset 5, -8
	movl	%esp, %ebp
	.cfi_def_cfa_register 5
	pushl	%ebx
	subl	$20, %esp
	.cfi_offset 3, -12
	movl	12(%ebp), %eax
	movl	%eax, (%esp)
	call	__ZNK19CDualStackAllocator10getMarkerREv
	movl	%eax, %ebx
	movl	12(%ebp), %eax
	movl	%eax, (%esp)
	call	__ZNK19CDualStackAllocator10getMarkerNEv
	movl	%ebx, 12(%esp)
	movl	%eax, 8(%esp)
	movl	8(%ebp), %eax
	movl	%eax, 4(%esp)
	movl	$LC74, (%esp)
LEHB87:
	call	_printf
LEHE87:
	jmp	L458
L457:
	cmpl	$-1, %edx
	je	L456
	movl	%eax, (%esp)
LEHB88:
	call	__Unwind_Resume
L456:
	movl	%eax, (%esp)
	call	___cxa_call_unexpected
LEHE88:
L458:
	addl	$20, %esp
	popl	%ebx
	.cfi_restore 3
	popl	%ebp
	.cfi_restore 5
	.cfi_def_cfa 4, 4
	ret
	.cfi_endproc
LFE275:
	.section	.gcc_except_table,"w"
	.align 4
LLSDA275:
	.byte	0xff
	.byte	0
	.uleb128 LLSDATT275-LLSDATTD275
LLSDATTD275:
	.byte	0x1
	.uleb128 LLSDACSE275-LLSDACSB275
LLSDACSB275:
	.uleb128 LEHB87-LFB275
	.uleb128 LEHE87-LEHB87
	.uleb128 L457-LFB275
	.uleb128 0x1
	.uleb128 LEHB88-LFB275
	.uleb128 LEHE88-LEHB88
	.uleb128 0
	.uleb128 0
LLSDACSE275:
	.byte	0x7f
	.byte	0
	.align 4
LLSDATT275:
	.byte	0
	.text
	.section .rdata,"dr"
	.align 4
LC75:
	.ascii "placement delete[](p=0x%p, dual_allocator.marker=%d,%d, align)\12\0"
	.text
	.globl	__ZdaPvR19CDualStackAllocatorjN15IStackAllocator9E_ORDEREDE
	.def	__ZdaPvR19CDualStackAllocatorjN15IStackAllocator9E_ORDEREDE;	.scl	2;	.type	32;	.endef
__ZdaPvR19CDualStackAllocatorjN15IStackAllocator9E_ORDEREDE:
LFB276:
	.cfi_startproc
	.cfi_personality 0,___gxx_personality_v0
	.cfi_lsda 0,LLSDA276
	pushl	%ebp
	.cfi_def_cfa_offset 8
	.cfi_offset 5, -8
	movl	%esp, %ebp
	.cfi_def_cfa_register 5
	pushl	%ebx
	subl	$20, %esp
	.cfi_offset 3, -12
	movl	12(%ebp), %eax
	movl	%eax, (%esp)
	call	__ZNK19CDualStackAllocator10getMarkerREv
	movl	%eax, %ebx
	movl	12(%ebp), %eax
	movl	%eax, (%esp)
	call	__ZNK19CDualStackAllocator10getMarkerNEv
	movl	%ebx, 12(%esp)
	movl	%eax, 8(%esp)
	movl	8(%ebp), %eax
	movl	%eax, 4(%esp)
	movl	$LC75, (%esp)
LEHB89:
	call	_printf
LEHE89:
	jmp	L463
L462:
	cmpl	$-1, %edx
	je	L461
	movl	%eax, (%esp)
LEHB90:
	call	__Unwind_Resume
L461:
	movl	%eax, (%esp)
	call	___cxa_call_unexpected
LEHE90:
L463:
	addl	$20, %esp
	popl	%ebx
	.cfi_restore 3
	popl	%ebp
	.cfi_restore 5
	.cfi_def_cfa 4, 4
	ret
	.cfi_endproc
LFE276:
	.section	.gcc_except_table,"w"
	.align 4
LLSDA276:
	.byte	0xff
	.byte	0
	.uleb128 LLSDATT276-LLSDATTD276
LLSDATTD276:
	.byte	0x1
	.uleb128 LLSDACSE276-LLSDACSB276
LLSDACSB276:
	.uleb128 LEHB89-LFB276
	.uleb128 LEHE89-LEHB89
	.uleb128 L462-LFB276
	.uleb128 0x1
	.uleb128 LEHB90-LFB276
	.uleb128 LEHE90-LEHB90
	.uleb128 0
	.uleb128 0
LLSDACSE276:
	.byte	0x7f
	.byte	0
	.align 4
LLSDATT276:
	.byte	0
	.text
	.section .rdata,"dr"
	.align 4
LC76:
	.ascii "placement delete[](p=0x%p, dual_allocator.marker=%d,%d)\12\0"
	.text
	.globl	__ZdaPvR19CDualStackAllocatorN15IStackAllocator9E_ORDEREDE
	.def	__ZdaPvR19CDualStackAllocatorN15IStackAllocator9E_ORDEREDE;	.scl	2;	.type	32;	.endef
__ZdaPvR19CDualStackAllocatorN15IStackAllocator9E_ORDEREDE:
LFB277:
	.cfi_startproc
	.cfi_personality 0,___gxx_personality_v0
	.cfi_lsda 0,LLSDA277
	pushl	%ebp
	.cfi_def_cfa_offset 8
	.cfi_offset 5, -8
	movl	%esp, %ebp
	.cfi_def_cfa_register 5
	pushl	%ebx
	subl	$36, %esp
	.cfi_offset 3, -12
	movl	$4, -12(%ebp)
	movl	12(%ebp), %eax
	movl	%eax, (%esp)
	call	__ZNK19CDualStackAllocator10getMarkerREv
	movl	%eax, %ebx
	movl	12(%ebp), %eax
	movl	%eax, (%esp)
	call	__ZNK19CDualStackAllocator10getMarkerNEv
	movl	%ebx, 12(%esp)
	movl	%eax, 8(%esp)
	movl	8(%ebp), %eax
	movl	%eax, 4(%esp)
	movl	$LC76, (%esp)
LEHB91:
	call	_printf
LEHE91:
	jmp	L468
L467:
	cmpl	$-1, %edx
	je	L466
	movl	%eax, (%esp)
LEHB92:
	call	__Unwind_Resume
L466:
	movl	%eax, (%esp)
	call	___cxa_call_unexpected
LEHE92:
L468:
	addl	$36, %esp
	popl	%ebx
	.cfi_restore 3
	popl	%ebp
	.cfi_restore 5
	.cfi_def_cfa 4, 4
	ret
	.cfi_endproc
LFE277:
	.section	.gcc_except_table,"w"
	.align 4
LLSDA277:
	.byte	0xff
	.byte	0
	.uleb128 LLSDATT277-LLSDATTD277
LLSDATTD277:
	.byte	0x1
	.uleb128 LLSDACSE277-LLSDACSB277
LLSDACSB277:
	.uleb128 LEHB91-LFB277
	.uleb128 LEHE91-LEHB91
	.uleb128 L467-LFB277
	.uleb128 0x1
	.uleb128 LEHB92-LFB277
	.uleb128 LEHE92-LEHB92
	.uleb128 0
	.uleb128 0
LLSDACSE277:
	.byte	0x7f
	.byte	0
	.align 4
LLSDATT277:
	.byte	0
	.text
	.section .rdata,"dr"
	.align 4
LC77:
	.ascii "CTest4b::DefaultConstructor : name=\"%s\"\12\0"
	.section	.text$_ZN7CTest4bC1Ev,"x"
	.linkonce discard
	.align 2
	.globl	__ZN7CTest4bC1Ev
	.def	__ZN7CTest4bC1Ev;	.scl	2;	.type	32;	.endef
__ZN7CTest4bC1Ev:
LFB284:
	.cfi_startproc
	.cfi_personality 0,___gxx_personality_v0
	.cfi_lsda 0,LLSDA284
	pushl	%ebp
	.cfi_def_cfa_offset 8
	.cfi_offset 5, -8
	movl	%esp, %ebp
	.cfi_def_cfa_register 5
	pushl	%ebx
	subl	$20, %esp
	.cfi_offset 3, -12
	movl	$LC10, 4(%esp)
	movl	8(%ebp), %eax
	movl	%eax, (%esp)
LEHB93:
	call	__ZN7CTest4bC1EPKc
LEHE93:
	movl	8(%ebp), %eax
	movl	(%eax), %eax
	movl	%eax, 4(%esp)
	movl	$LC77, (%esp)
LEHB94:
	call	_printf
LEHE94:
	jmp	L472
L471:
	movl	%eax, %ebx
	movl	8(%ebp), %eax
	movl	%eax, (%esp)
	call	__ZN7CTest4bD1Ev
	movl	%ebx, %eax
	movl	%eax, (%esp)
LEHB95:
	call	__Unwind_Resume
LEHE95:
L472:
	addl	$20, %esp
	popl	%ebx
	.cfi_restore 3
	popl	%ebp
	.cfi_restore 5
	.cfi_def_cfa 4, 4
	ret
	.cfi_endproc
LFE284:
	.section	.gcc_except_table,"w"
LLSDA284:
	.byte	0xff
	.byte	0xff
	.byte	0x1
	.uleb128 LLSDACSE284-LLSDACSB284
LLSDACSB284:
	.uleb128 LEHB93-LFB284
	.uleb128 LEHE93-LEHB93
	.uleb128 0
	.uleb128 0
	.uleb128 LEHB94-LFB284
	.uleb128 LEHE94-LEHB94
	.uleb128 L471-LFB284
	.uleb128 0
	.uleb128 LEHB95-LFB284
	.uleb128 LEHE95-LEHB95
	.uleb128 0
	.uleb128 0
LLSDACSE284:
	.section	.text$_ZN7CTest4bC1Ev,"x"
	.linkonce discard
	.section .rdata,"dr"
	.align 4
LC78:
	.ascii "CTest4b::Constructor : name=\"%s\"\12\0"
	.section	.text$_ZN7CTest4bC1EPKc,"x"
	.linkonce discard
	.align 2
	.globl	__ZN7CTest4bC1EPKc
	.def	__ZN7CTest4bC1EPKc;	.scl	2;	.type	32;	.endef
__ZN7CTest4bC1EPKc:
LFB287:
	.cfi_startproc
	pushl	%ebp
	.cfi_def_cfa_offset 8
	.cfi_offset 5, -8
	movl	%esp, %ebp
	.cfi_def_cfa_register 5
	subl	$24, %esp
	movl	8(%ebp), %eax
	movl	12(%ebp), %edx
	movl	%edx, (%eax)
	movl	8(%ebp), %eax
	movl	(%eax), %eax
	movl	%eax, 4(%esp)
	movl	$LC78, (%esp)
	call	_printf
	leave
	.cfi_restore 5
	.cfi_def_cfa 4, 4
	ret
	.cfi_endproc
LFE287:
	.section .rdata,"dr"
	.align 4
LC79:
	.ascii "CTest4b::Destructor : name=\"%s\"\12\0"
	.section	.text$_ZN7CTest4bD1Ev,"x"
	.linkonce discard
	.align 2
	.globl	__ZN7CTest4bD1Ev
	.def	__ZN7CTest4bD1Ev;	.scl	2;	.type	32;	.endef
__ZN7CTest4bD1Ev:
LFB290:
	.cfi_startproc
	.cfi_personality 0,___gxx_personality_v0
	.cfi_lsda 0,LLSDA290
	pushl	%ebp
	.cfi_def_cfa_offset 8
	.cfi_offset 5, -8
	movl	%esp, %ebp
	.cfi_def_cfa_register 5
	subl	$24, %esp
	movl	8(%ebp), %eax
	movl	(%eax), %eax
	movl	%eax, 4(%esp)
	movl	$LC79, (%esp)
	call	_printf
	leave
	.cfi_restore 5
	.cfi_def_cfa 4, 4
	ret
	.cfi_endproc
LFE290:
	.section	.gcc_except_table,"w"
LLSDA290:
	.byte	0xff
	.byte	0xff
	.byte	0x1
	.uleb128 LLSDACSE290-LLSDACSB290
LLSDACSB290:
LLSDACSE290:
	.section	.text$_ZN7CTest4bD1Ev,"x"
	.linkonce discard
	.section .rdata,"dr"
	.align 4
LC80:
	.ascii "---------- test4a:\343\202\271\343\202\277\343\203\203\343\202\257\343\202\242\343\203\255\343\202\261\343\203\274\343\202\277 ----------\0"
LC81:
	.ascii "-----\0"
LC82:
	.ascii "i1=0x%p\12\0"
LC83:
	.ascii "c1=0x%p\12\0"
LC84:
	.ascii "marker=%d\12\0"
LC85:
	.ascii "f1=0x%p\12\0"
LC86:
	.ascii "\343\203\206\343\202\271\343\203\210"
	.ascii "4a\0"
LC87:
	.ascii "obj1_p=0x%p\12\0"
LC88:
	.ascii "back(%d)\12\0"
LC89:
	.ascii "obj2_p=0x%p\12\0"
LC90:
	.ascii "i2=0x%p\12\0"
LC91:
	.ascii "f2=0x%p\12\0"
LC92:
	.ascii "c2=0x%p\12\0"
LC93:
	.ascii "over=0x%p\12\0"
	.text
	.globl	__Z6test4av
	.def	__Z6test4av;	.scl	2;	.type	32;	.endef
__Z6test4av:
LFB291:
	.cfi_startproc
	.cfi_personality 0,___gxx_personality_v0
	.cfi_lsda 0,LLSDA291
	pushl	%ebp
	.cfi_def_cfa_offset 8
	.cfi_offset 5, -8
	movl	%esp, %ebp
	.cfi_def_cfa_register 5
	pushl	%edi
	pushl	%esi
	pushl	%ebx
	subl	$156, %esp
	.cfi_offset 7, -12
	.cfi_offset 6, -16
	.cfi_offset 3, -20
	movl	$LC80, (%esp)
LEHB96:
	call	_puts
LEHE96:
	leal	-148(%ebp), %eax
	movl	%eax, (%esp)
	call	__ZN23CStackAllocatorWithBuffILj64EEC1Ev
	leal	-148(%ebp), %eax
	movl	%eax, (%esp)
	call	__ZNK15CStackAllocator7getBuffEv
	movl	%eax, 4(%esp)
	movl	$LC3, (%esp)
LEHB97:
	call	_printf
LEHE97:
	movl	$LC81, (%esp)
LEHB98:
	call	_puts
	movl	$4, 8(%esp)
	leal	-148(%ebp), %eax
	movl	%eax, 4(%esp)
	movl	$8, (%esp)
	call	__ZnajR15CStackAllocatorj
	movl	%eax, -40(%ebp)
	movl	-40(%ebp), %eax
	movl	%eax, 4(%esp)
	movl	$LC82, (%esp)
	call	_printf
	movl	$1, 8(%esp)
	leal	-148(%ebp), %eax
	movl	%eax, 4(%esp)
	movl	$13, (%esp)
	call	__ZnajR15CStackAllocatorj
	movl	%eax, -44(%ebp)
	movl	-44(%ebp), %eax
	movl	%eax, 4(%esp)
	movl	$LC83, (%esp)
	call	_printf
	movl	-148(%ebp), %eax
	addl	$16, %eax
	movl	(%eax), %eax
	leal	-148(%ebp), %edx
	movl	%edx, (%esp)
	call	*%eax
	movl	%eax, -28(%ebp)
	movl	-28(%ebp), %eax
	movl	%eax, 4(%esp)
	movl	$LC84, (%esp)
	call	_printf
	movl	$4, 8(%esp)
	leal	-148(%ebp), %eax
	movl	%eax, 4(%esp)
	movl	$16, (%esp)
	call	__ZnajR15CStackAllocatorj
	movl	%eax, -48(%ebp)
	movl	-48(%ebp), %eax
	movl	%eax, 4(%esp)
	movl	$LC85, (%esp)
	call	_printf
LEHE98:
	movl	$4, 8(%esp)
	leal	-148(%ebp), %eax
	movl	%eax, 4(%esp)
	movl	$8, (%esp)
	call	__ZnwjR15CStackAllocatorj
	movl	%eax, %ebx
	testl	%ebx, %ebx
	je	L477
	movl	$LC86, 4(%esp)
	movl	%ebx, (%esp)
LEHB99:
	call	__ZN7CTest4aC1EPKc
LEHE99:
	movl	%ebx, %eax
	jmp	L478
L477:
	movl	%ebx, %eax
L478:
	movl	%eax, -52(%ebp)
	movl	-52(%ebp), %eax
	movl	%eax, 4(%esp)
	movl	$LC87, (%esp)
LEHB100:
	call	_printf
	leal	-148(%ebp), %eax
	movl	%eax, 8(%esp)
	movl	$4, 4(%esp)
	leal	-48(%ebp), %eax
	movl	%eax, (%esp)
	call	__Z10delete_ptrIfEvRPT_jR15CStackAllocator
	leal	-148(%ebp), %eax
	movl	%eax, 8(%esp)
	movl	$15, 4(%esp)
	leal	-44(%ebp), %eax
	movl	%eax, (%esp)
	call	__Z10delete_ptrIcEvRPT_jR15CStackAllocator
	leal	-148(%ebp), %eax
	movl	%eax, 8(%esp)
	movl	$2, 4(%esp)
	leal	-40(%ebp), %eax
	movl	%eax, (%esp)
	call	__Z10delete_ptrIiEvRPT_jR15CStackAllocator
	leal	-148(%ebp), %eax
	movl	%eax, 4(%esp)
	leal	-52(%ebp), %eax
	movl	%eax, (%esp)
	call	__Z10delete_ptrI7CTest4aEvRPT_R15CStackAllocator
	movl	-148(%ebp), %eax
	addl	$24, %eax
	movl	(%eax), %eax
	movl	-28(%ebp), %edx
	movl	%edx, 4(%esp)
	leal	-148(%ebp), %edx
	movl	%edx, (%esp)
	call	*%eax
	movl	-28(%ebp), %eax
	movl	%eax, 4(%esp)
	movl	$LC88, (%esp)
	call	_printf
LEHE100:
	movl	$LC81, (%esp)
LEHB101:
	call	_puts
	movl	-148(%ebp), %eax
	addl	$16, %eax
	movl	(%eax), %eax
	leal	-148(%ebp), %edx
	movl	%edx, (%esp)
	call	*%eax
	movl	%eax, -32(%ebp)
	movl	-32(%ebp), %eax
	movl	%eax, 4(%esp)
	movl	$LC84, (%esp)
	call	_printf
LEHE101:
	movl	$4, 8(%esp)
	leal	-148(%ebp), %eax
	movl	%eax, 4(%esp)
	movl	$28, (%esp)
	call	__ZnajR15CStackAllocatorj
	movl	%eax, %ebx
	testl	%ebx, %ebx
	je	L479
	movl	$3, (%ebx)
	leal	4(%ebx), %esi
	movl	$2, %edi
	movl	%esi, -156(%ebp)
	jmp	L480
L481:
	movl	-156(%ebp), %eax
	movl	%eax, (%esp)
LEHB102:
	call	__ZN7CTest4aC1Ev
LEHE102:
	addl	$8, -156(%ebp)
	subl	$1, %edi
L480:
	cmpl	$-1, %edi
	jne	L481
	leal	4(%ebx), %eax
	jmp	L482
L479:
	movl	%ebx, %eax
L482:
	movl	%eax, -56(%ebp)
	movl	-56(%ebp), %eax
	movl	%eax, 4(%esp)
	movl	$LC89, (%esp)
LEHB103:
	call	_printf
	movl	$4, 8(%esp)
	leal	-148(%ebp), %eax
	movl	%eax, 4(%esp)
	movl	$4, (%esp)
	call	__ZnwjR15CStackAllocatorj
	movl	%eax, -60(%ebp)
	movl	-60(%ebp), %eax
	movl	%eax, 4(%esp)
	movl	$LC90, (%esp)
	call	_printf
	movl	$4, 8(%esp)
	leal	-148(%ebp), %eax
	movl	%eax, 4(%esp)
	movl	$4, (%esp)
	call	__ZnwjR15CStackAllocatorj
	movl	%eax, -64(%ebp)
	movl	-64(%ebp), %eax
	movl	%eax, 4(%esp)
	movl	$LC91, (%esp)
	call	_printf
	movl	$1, 8(%esp)
	leal	-148(%ebp), %eax
	movl	%eax, 4(%esp)
	movl	$1, (%esp)
	call	__ZnwjR15CStackAllocatorj
	movl	%eax, -68(%ebp)
	movl	-68(%ebp), %eax
	movl	%eax, 4(%esp)
	movl	$LC92, (%esp)
	call	_printf
	movl	$4, 8(%esp)
	leal	-148(%ebp), %eax
	movl	%eax, 4(%esp)
	movl	$40, (%esp)
	call	__ZnajR15CStackAllocatorj
	movl	%eax, -36(%ebp)
	movl	-36(%ebp), %eax
	movl	%eax, 4(%esp)
	movl	$LC93, (%esp)
	call	_printf
	leal	-148(%ebp), %eax
	movl	%eax, 4(%esp)
	leal	-64(%ebp), %eax
	movl	%eax, (%esp)
	call	__Z10delete_ptrIfEvRPT_R15CStackAllocator
	leal	-148(%ebp), %eax
	movl	%eax, 4(%esp)
	leal	-68(%ebp), %eax
	movl	%eax, (%esp)
	call	__Z10delete_ptrIcEvRPT_R15CStackAllocator
	leal	-148(%ebp), %eax
	movl	%eax, 4(%esp)
	leal	-60(%ebp), %eax
	movl	%eax, (%esp)
	call	__Z10delete_ptrIiEvRPT_R15CStackAllocator
	leal	-148(%ebp), %eax
	movl	%eax, 8(%esp)
	movl	$3, 4(%esp)
	leal	-56(%ebp), %eax
	movl	%eax, (%esp)
	call	__Z10delete_ptrI7CTest4aEvRPT_jR15CStackAllocator
LEHE103:
	leal	-148(%ebp), %eax
	movl	%eax, (%esp)
	call	__ZN23CStackAllocatorWithBuffILj64EED1Ev
	jmp	L497
L494:
	movl	%eax, %esi
	movl	$4, 8(%esp)
	leal	-148(%ebp), %eax
	movl	%eax, 4(%esp)
	movl	%ebx, (%esp)
	call	__ZdlPvR15CStackAllocatorj
	movl	%esi, %eax
	jmp	L484
L493:
L484:
	movl	%eax, %ebx
	jmp	L485
L496:
	movl	%eax, -156(%ebp)
	testl	%esi, %esi
	je	L487
	movl	$2, %eax
	subl	%edi, %eax
	sall	$3, %eax
	leal	(%esi,%eax), %edi
L488:
	cmpl	%esi, %edi
	je	L487
	subl	$8, %edi
	movl	%edi, (%esp)
	call	__ZN7CTest4aD1Ev
	jmp	L488
L487:
	movl	-156(%ebp), %esi
	movl	$4, 8(%esp)
	leal	-148(%ebp), %eax
	movl	%eax, 4(%esp)
	movl	%ebx, (%esp)
	call	__ZdaPvR15CStackAllocatorj
	movl	%esi, %eax
	jmp	L489
L495:
L489:
	movl	%eax, %ebx
	jmp	L485
L492:
	movl	%eax, %ebx
L485:
	leal	-148(%ebp), %eax
	movl	%eax, (%esp)
	call	__ZN23CStackAllocatorWithBuffILj64EED1Ev
	movl	%ebx, %eax
	jmp	L490
L491:
L490:
	movl	%eax, (%esp)
LEHB104:
	call	__Unwind_Resume
LEHE104:
L497:
	addl	$156, %esp
	popl	%ebx
	.cfi_restore 3
	popl	%esi
	.cfi_restore 6
	popl	%edi
	.cfi_restore 7
	popl	%ebp
	.cfi_restore 5
	.cfi_def_cfa 4, 4
	ret
	.cfi_endproc
LFE291:
	.section	.gcc_except_table,"w"
LLSDA291:
	.byte	0xff
	.byte	0xff
	.byte	0x1
	.uleb128 LLSDACSE291-LLSDACSB291
LLSDACSB291:
	.uleb128 LEHB96-LFB291
	.uleb128 LEHE96-LEHB96
	.uleb128 L491-LFB291
	.uleb128 0
	.uleb128 LEHB97-LFB291
	.uleb128 LEHE97-LEHB97
	.uleb128 L492-LFB291
	.uleb128 0
	.uleb128 LEHB98-LFB291
	.uleb128 LEHE98-LEHB98
	.uleb128 L493-LFB291
	.uleb128 0
	.uleb128 LEHB99-LFB291
	.uleb128 LEHE99-LEHB99
	.uleb128 L494-LFB291
	.uleb128 0
	.uleb128 LEHB100-LFB291
	.uleb128 LEHE100-LEHB100
	.uleb128 L493-LFB291
	.uleb128 0
	.uleb128 LEHB101-LFB291
	.uleb128 LEHE101-LEHB101
	.uleb128 L495-LFB291
	.uleb128 0
	.uleb128 LEHB102-LFB291
	.uleb128 LEHE102-LEHB102
	.uleb128 L496-LFB291
	.uleb128 0
	.uleb128 LEHB103-LFB291
	.uleb128 LEHE103-LEHB103
	.uleb128 L495-LFB291
	.uleb128 0
	.uleb128 LEHB104-LFB291
	.uleb128 LEHE104-LEHB104
	.uleb128 0
	.uleb128 0
LLSDACSE291:
	.text
	.section .rdata,"dr"
	.align 4
LC94:
	.ascii "---------- test4b:\345\217\214\346\226\271\345\220\221\343\202\271\343\202\277\343\203\203\343\202\257\343\202\242\343\203\255\343\202\261\343\203\274\343\202\277 ----------\0"
LC95:
	.ascii "getDefaultOrdered()=%d\12\0"
	.align 4
LC96:
	.ascii "marker: default=%d, normal=%d, reverse=%d\12\0"
LC97:
	.ascii "\343\203\206\343\202\271\343\203\210"
	.ascii "4b\0"
LC98:
	.ascii "backN(%d)\12\0"
LC99:
	.ascii "backR(%d)\12\0"
LC100:
	.ascii "over1=0x%p\12\0"
LC101:
	.ascii "over2=0x%p\12\0"
	.text
	.globl	__Z6test4bv
	.def	__Z6test4bv;	.scl	2;	.type	32;	.endef
__Z6test4bv:
LFB292:
	.cfi_startproc
	.cfi_personality 0,___gxx_personality_v0
	.cfi_lsda 0,LLSDA292
	pushl	%ebp
	.cfi_def_cfa_offset 8
	.cfi_offset 5, -8
	movl	%esp, %ebp
	.cfi_def_cfa_register 5
	pushl	%edi
	pushl	%esi
	pushl	%ebx
	subl	$204, %esp
	.cfi_offset 7, -12
	.cfi_offset 6, -16
	.cfi_offset 3, -20
	movl	$LC94, (%esp)
LEHB105:
	call	_puts
LEHE105:
	movl	$1, 4(%esp)
	leal	-176(%ebp), %eax
	movl	%eax, (%esp)
	call	__ZN27CDualStackAllocatorWithBuffILj64EEC1EN15IStackAllocator9E_ORDEREDE
	leal	-176(%ebp), %eax
	movl	%eax, (%esp)
	call	__ZNK19CDualStackAllocator7getBuffEv
	movl	%eax, 4(%esp)
	movl	$LC3, (%esp)
LEHB106:
	call	_printf
LEHE106:
	movl	$LC81, (%esp)
LEHB107:
	call	_puts
	leal	-176(%ebp), %eax
	movl	%eax, (%esp)
	call	__ZNK19CDualStackAllocator17getDefaultOrderedEv
	movl	%eax, 4(%esp)
	movl	$LC95, (%esp)
	call	_printf
	movl	$0, 8(%esp)
	leal	-176(%ebp), %eax
	movl	%eax, 4(%esp)
	movl	$8, (%esp)
	call	__ZnajR19CDualStackAllocatorN15IStackAllocator9E_ORDEREDE
	movl	%eax, -60(%ebp)
	movl	-60(%ebp), %eax
	movl	%eax, 4(%esp)
	movl	$LC82, (%esp)
	call	_printf
	movl	$-1, 12(%esp)
	movl	$1, 8(%esp)
	leal	-176(%ebp), %eax
	movl	%eax, 4(%esp)
	movl	$13, (%esp)
	call	__ZnajR19CDualStackAllocatorjN15IStackAllocator9E_ORDEREDE
	movl	%eax, -64(%ebp)
	movl	-64(%ebp), %eax
	movl	%eax, 4(%esp)
	movl	$LC83, (%esp)
	call	_printf
	movl	-176(%ebp), %eax
	addl	$16, %eax
	movl	(%eax), %eax
	leal	-176(%ebp), %edx
	movl	%edx, (%esp)
	call	*%eax
	movl	%eax, -28(%ebp)
	leal	-176(%ebp), %eax
	movl	%eax, (%esp)
	call	__ZNK19CDualStackAllocator10getMarkerNEv
	movl	%eax, -32(%ebp)
	leal	-176(%ebp), %eax
	movl	%eax, (%esp)
	call	__ZNK19CDualStackAllocator10getMarkerREv
	movl	%eax, -36(%ebp)
	movl	-36(%ebp), %eax
	movl	%eax, 12(%esp)
	movl	-32(%ebp), %eax
	movl	%eax, 8(%esp)
	movl	-28(%ebp), %eax
	movl	%eax, 4(%esp)
	movl	$LC96, (%esp)
	call	_printf
	movl	$0, 8(%esp)
	leal	-176(%ebp), %eax
	movl	%eax, 4(%esp)
	movl	$16, (%esp)
	call	__ZnajR19CDualStackAllocatorN15IStackAllocator9E_ORDEREDE
	movl	%eax, -68(%ebp)
	movl	-68(%ebp), %eax
	movl	%eax, 4(%esp)
	movl	$LC85, (%esp)
	call	_printf
LEHE107:
	movl	$-1, 8(%esp)
	leal	-176(%ebp), %eax
	movl	%eax, 4(%esp)
	movl	$8, (%esp)
	call	__ZnwjR19CDualStackAllocatorN15IStackAllocator9E_ORDEREDE
	movl	%eax, %ebx
	testl	%ebx, %ebx
	je	L499
	movl	$LC97, 4(%esp)
	movl	%ebx, (%esp)
LEHB108:
	call	__ZN7CTest4bC1EPKc
LEHE108:
	movl	%ebx, %eax
	jmp	L500
L499:
	movl	%ebx, %eax
L500:
	movl	%eax, -72(%ebp)
	movl	-72(%ebp), %eax
	movl	%eax, 4(%esp)
	movl	$LC87, (%esp)
LEHB109:
	call	_printf
	leal	-176(%ebp), %eax
	movl	%eax, 8(%esp)
	movl	$4, 4(%esp)
	leal	-68(%ebp), %eax
	movl	%eax, (%esp)
	call	__Z10delete_ptrIfEvRPT_jR19CDualStackAllocator
	leal	-176(%ebp), %eax
	movl	%eax, 8(%esp)
	movl	$15, 4(%esp)
	leal	-64(%ebp), %eax
	movl	%eax, (%esp)
	call	__Z10delete_ptrIcEvRPT_jR19CDualStackAllocator
	leal	-176(%ebp), %eax
	movl	%eax, 8(%esp)
	movl	$2, 4(%esp)
	leal	-60(%ebp), %eax
	movl	%eax, (%esp)
	call	__Z10delete_ptrIiEvRPT_jR19CDualStackAllocator
	leal	-176(%ebp), %eax
	movl	%eax, 4(%esp)
	leal	-72(%ebp), %eax
	movl	%eax, (%esp)
	call	__Z10delete_ptrI7CTest4bEvRPT_R19CDualStackAllocator
	movl	-32(%ebp), %eax
	movl	%eax, 4(%esp)
	leal	-176(%ebp), %eax
	movl	%eax, (%esp)
	call	__ZN19CDualStackAllocator5backNEj
	movl	-32(%ebp), %eax
	movl	%eax, 4(%esp)
	movl	$LC98, (%esp)
	call	_printf
	movl	-36(%ebp), %eax
	movl	%eax, 4(%esp)
	leal	-176(%ebp), %eax
	movl	%eax, (%esp)
	call	__ZN19CDualStackAllocator5backREj
	movl	-36(%ebp), %eax
	movl	%eax, 4(%esp)
	movl	$LC99, (%esp)
	call	_printf
LEHE109:
	movl	$LC81, (%esp)
LEHB110:
	call	_puts
	movl	$-1, 4(%esp)
	leal	-176(%ebp), %eax
	movl	%eax, (%esp)
	call	__ZN19CDualStackAllocator17setDefaultOrderedEN15IStackAllocator9E_ORDEREDE
	leal	-176(%ebp), %eax
	movl	%eax, (%esp)
	call	__ZNK19CDualStackAllocator17getDefaultOrderedEv
	movl	%eax, 4(%esp)
	movl	$LC95, (%esp)
	call	_printf
	movl	-176(%ebp), %eax
	addl	$16, %eax
	movl	(%eax), %eax
	leal	-176(%ebp), %edx
	movl	%edx, (%esp)
	call	*%eax
	movl	%eax, -40(%ebp)
	leal	-176(%ebp), %eax
	movl	%eax, (%esp)
	call	__ZNK19CDualStackAllocator10getMarkerNEv
	movl	%eax, -44(%ebp)
	leal	-176(%ebp), %eax
	movl	%eax, (%esp)
	call	__ZNK19CDualStackAllocator10getMarkerREv
	movl	%eax, -48(%ebp)
	movl	-48(%ebp), %eax
	movl	%eax, 12(%esp)
	movl	-44(%ebp), %eax
	movl	%eax, 8(%esp)
	movl	-40(%ebp), %eax
	movl	%eax, 4(%esp)
	movl	$LC96, (%esp)
	call	_printf
LEHE110:
	movl	$1, 8(%esp)
	leal	-176(%ebp), %eax
	movl	%eax, 4(%esp)
	movl	$28, (%esp)
	call	__ZnajR19CDualStackAllocatorN15IStackAllocator9E_ORDEREDE
	movl	%eax, %ebx
	testl	%ebx, %ebx
	je	L501
	movl	$3, (%ebx)
	leal	4(%ebx), %esi
	movl	$2, %edi
	movl	%esi, -188(%ebp)
	jmp	L502
L503:
	movl	-188(%ebp), %eax
	movl	%eax, (%esp)
LEHB111:
	call	__ZN7CTest4bC1Ev
LEHE111:
	addl	$8, -188(%ebp)
	subl	$1, %edi
L502:
	cmpl	$-1, %edi
	jne	L503
	leal	4(%ebx), %eax
	jmp	L504
L501:
	movl	%ebx, %eax
L504:
	movl	%eax, -76(%ebp)
	movl	-76(%ebp), %eax
	movl	%eax, 4(%esp)
	movl	$LC89, (%esp)
LEHB112:
	call	_printf
	movl	$0, 8(%esp)
	leal	-176(%ebp), %eax
	movl	%eax, 4(%esp)
	movl	$4, (%esp)
	call	__ZnwjR19CDualStackAllocatorN15IStackAllocator9E_ORDEREDE
	movl	%eax, -80(%ebp)
	movl	-80(%ebp), %eax
	movl	%eax, 4(%esp)
	movl	$LC90, (%esp)
	call	_printf
	movl	$1, 8(%esp)
	leal	-176(%ebp), %eax
	movl	%eax, 4(%esp)
	movl	$4, (%esp)
	call	__ZnwjR19CDualStackAllocatorN15IStackAllocator9E_ORDEREDE
	movl	%eax, -84(%ebp)
	movl	-84(%ebp), %eax
	movl	%eax, 4(%esp)
	movl	$LC91, (%esp)
	call	_printf
	movl	$0, 12(%esp)
	movl	$1, 8(%esp)
	leal	-176(%ebp), %eax
	movl	%eax, 4(%esp)
	movl	$1, (%esp)
	call	__ZnwjR19CDualStackAllocatorjN15IStackAllocator9E_ORDEREDE
	movl	%eax, -88(%ebp)
	movl	-88(%ebp), %eax
	movl	%eax, 4(%esp)
	movl	$LC92, (%esp)
	call	_printf
	movl	$1, 8(%esp)
	leal	-176(%ebp), %eax
	movl	%eax, 4(%esp)
	movl	$40, (%esp)
	call	__ZnajR19CDualStackAllocatorN15IStackAllocator9E_ORDEREDE
	movl	%eax, -52(%ebp)
	movl	-52(%ebp), %eax
	movl	%eax, 4(%esp)
	movl	$LC100, (%esp)
	call	_printf
	movl	$0, 8(%esp)
	leal	-176(%ebp), %eax
	movl	%eax, 4(%esp)
	movl	$40, (%esp)
	call	__ZnajR19CDualStackAllocatorN15IStackAllocator9E_ORDEREDE
	movl	%eax, -56(%ebp)
	movl	-56(%ebp), %eax
	movl	%eax, 4(%esp)
	movl	$LC101, (%esp)
	call	_printf
	leal	-176(%ebp), %eax
	movl	%eax, 4(%esp)
	leal	-84(%ebp), %eax
	movl	%eax, (%esp)
	call	__Z10delete_ptrIfEvRPT_R19CDualStackAllocator
	leal	-176(%ebp), %eax
	movl	%eax, 4(%esp)
	leal	-88(%ebp), %eax
	movl	%eax, (%esp)
	call	__Z10delete_ptrIcEvRPT_R19CDualStackAllocator
	leal	-176(%ebp), %eax
	movl	%eax, 4(%esp)
	leal	-80(%ebp), %eax
	movl	%eax, (%esp)
	call	__Z10delete_ptrIiEvRPT_R19CDualStackAllocator
	leal	-176(%ebp), %eax
	movl	%eax, 8(%esp)
	movl	$3, 4(%esp)
	leal	-76(%ebp), %eax
	movl	%eax, (%esp)
	call	__Z10delete_ptrI7CTest4bEvRPT_jR19CDualStackAllocator
LEHE112:
	leal	-176(%ebp), %eax
	movl	%eax, (%esp)
	call	__ZN27CDualStackAllocatorWithBuffILj64EED1Ev
	jmp	L519
L516:
	movl	%eax, %esi
	movl	$-1, 8(%esp)
	leal	-176(%ebp), %eax
	movl	%eax, 4(%esp)
	movl	%ebx, (%esp)
	call	__ZdlPvR19CDualStackAllocatorN15IStackAllocator9E_ORDEREDE
	movl	%esi, %eax
	jmp	L506
L515:
L506:
	movl	%eax, %ebx
	jmp	L507
L518:
	movl	%eax, -188(%ebp)
	testl	%esi, %esi
	je	L509
	movl	$2, %eax
	subl	%edi, %eax
	sall	$3, %eax
	leal	(%esi,%eax), %edi
L510:
	cmpl	%esi, %edi
	je	L509
	subl	$8, %edi
	movl	%edi, (%esp)
	call	__ZN7CTest4bD1Ev
	jmp	L510
L509:
	movl	-188(%ebp), %esi
	movl	$1, 8(%esp)
	leal	-176(%ebp), %eax
	movl	%eax, 4(%esp)
	movl	%ebx, (%esp)
	call	__ZdaPvR19CDualStackAllocatorN15IStackAllocator9E_ORDEREDE
	movl	%esi, %eax
	jmp	L511
L517:
L511:
	movl	%eax, %ebx
	jmp	L507
L514:
	movl	%eax, %ebx
L507:
	leal	-176(%ebp), %eax
	movl	%eax, (%esp)
	call	__ZN27CDualStackAllocatorWithBuffILj64EED1Ev
	movl	%ebx, %eax
	jmp	L512
L513:
L512:
	movl	%eax, (%esp)
LEHB113:
	call	__Unwind_Resume
LEHE113:
L519:
	addl	$204, %esp
	popl	%ebx
	.cfi_restore 3
	popl	%esi
	.cfi_restore 6
	popl	%edi
	.cfi_restore 7
	popl	%ebp
	.cfi_restore 5
	.cfi_def_cfa 4, 4
	ret
	.cfi_endproc
LFE292:
	.section	.gcc_except_table,"w"
LLSDA292:
	.byte	0xff
	.byte	0xff
	.byte	0x1
	.uleb128 LLSDACSE292-LLSDACSB292
LLSDACSB292:
	.uleb128 LEHB105-LFB292
	.uleb128 LEHE105-LEHB105
	.uleb128 L513-LFB292
	.uleb128 0
	.uleb128 LEHB106-LFB292
	.uleb128 LEHE106-LEHB106
	.uleb128 L514-LFB292
	.uleb128 0
	.uleb128 LEHB107-LFB292
	.uleb128 LEHE107-LEHB107
	.uleb128 L515-LFB292
	.uleb128 0
	.uleb128 LEHB108-LFB292
	.uleb128 LEHE108-LEHB108
	.uleb128 L516-LFB292
	.uleb128 0
	.uleb128 LEHB109-LFB292
	.uleb128 LEHE109-LEHB109
	.uleb128 L515-LFB292
	.uleb128 0
	.uleb128 LEHB110-LFB292
	.uleb128 LEHE110-LEHB110
	.uleb128 L517-LFB292
	.uleb128 0
	.uleb128 LEHB111-LFB292
	.uleb128 LEHE111-LEHB111
	.uleb128 L518-LFB292
	.uleb128 0
	.uleb128 LEHB112-LFB292
	.uleb128 LEHE112-LEHB112
	.uleb128 L517-LFB292
	.uleb128 0
	.uleb128 LEHB113-LFB292
	.uleb128 LEHE113-LEHB113
	.uleb128 0
	.uleb128 0
LLSDACSE292:
	.text
	.section	.text$_ZStanSt12memory_orderSt23__memory_order_modifier,"x"
	.linkonce discard
	.globl	__ZStanSt12memory_orderSt23__memory_order_modifier
	.def	__ZStanSt12memory_orderSt23__memory_order_modifier;	.scl	2;	.type	32;	.endef
__ZStanSt12memory_orderSt23__memory_order_modifier:
LFB294:
	.cfi_startproc
	pushl	%ebp
	.cfi_def_cfa_offset 8
	.cfi_offset 5, -8
	movl	%esp, %ebp
	.cfi_def_cfa_register 5
	movl	8(%ebp), %edx
	movl	12(%ebp), %eax
	andl	%edx, %eax
	popl	%ebp
	.cfi_restore 5
	.cfi_def_cfa 4, 4
	ret
	.cfi_endproc
LFE294:
	.section	.text$_ZNSt11atomic_flag12test_and_setESt12memory_order,"x"
	.linkonce discard
	.align 2
	.globl	__ZNSt11atomic_flag12test_and_setESt12memory_order
	.def	__ZNSt11atomic_flag12test_and_setESt12memory_order;	.scl	2;	.type	32;	.endef
__ZNSt11atomic_flag12test_and_setESt12memory_order:
LFB303:
	.cfi_startproc
	pushl	%ebp
	.cfi_def_cfa_offset 8
	.cfi_offset 5, -8
	movl	%esp, %ebp
	.cfi_def_cfa_register 5
	movl	8(%ebp), %eax
	movl	$1, %edx
	xchgb	(%eax), %dl
	movl	%edx, %eax
	popl	%ebp
	.cfi_restore 5
	.cfi_def_cfa 4, 4
	ret
	.cfi_endproc
LFE303:
	.section	.text$_ZNSt11atomic_flag5clearESt12memory_order,"x"
	.linkonce discard
	.align 2
	.globl	__ZNSt11atomic_flag5clearESt12memory_order
	.def	__ZNSt11atomic_flag5clearESt12memory_order;	.scl	2;	.type	32;	.endef
__ZNSt11atomic_flag5clearESt12memory_order:
LFB305:
	.cfi_startproc
	pushl	%ebp
	.cfi_def_cfa_offset 8
	.cfi_offset 5, -8
	movl	%esp, %ebp
	.cfi_def_cfa_register 5
	subl	$24, %esp
	movl	$65535, 4(%esp)
	movl	12(%ebp), %eax
	movl	%eax, (%esp)
	call	__ZStanSt12memory_orderSt23__memory_order_modifier
	movl	%eax, -4(%ebp)
	movl	8(%ebp), %eax
	movl	$0, %edx
	xchgb	(%eax), %dl
	leave
	.cfi_restore 5
	.cfi_def_cfa 4, 4
	ret
	.cfi_endproc
LFE305:
	.section	.text$_ZNK14CPoolAllocator7getBuffEv,"x"
	.linkonce discard
	.align 2
	.globl	__ZNK14CPoolAllocator7getBuffEv
	.def	__ZNK14CPoolAllocator7getBuffEv;	.scl	2;	.type	32;	.endef
__ZNK14CPoolAllocator7getBuffEv:
LFB619:
	.cfi_startproc
	pushl	%ebp
	.cfi_def_cfa_offset 8
	.cfi_offset 5, -8
	movl	%esp, %ebp
	.cfi_def_cfa_register 5
	movl	8(%ebp), %eax
	movl	(%eax), %eax
	popl	%ebp
	.cfi_restore 5
	.cfi_def_cfa 4, 4
	ret
	.cfi_endproc
LFE619:
	.section	.text$_ZNK14CPoolAllocator12getBlockSizeEv,"x"
	.linkonce discard
	.align 2
	.globl	__ZNK14CPoolAllocator12getBlockSizeEv
	.def	__ZNK14CPoolAllocator12getBlockSizeEv;	.scl	2;	.type	32;	.endef
__ZNK14CPoolAllocator12getBlockSizeEv:
LFB620:
	.cfi_startproc
	pushl	%ebp
	.cfi_def_cfa_offset 8
	.cfi_offset 5, -8
	movl	%esp, %ebp
	.cfi_def_cfa_register 5
	movl	8(%ebp), %eax
	movl	4(%eax), %eax
	popl	%ebp
	.cfi_restore 5
	.cfi_def_cfa 4, 4
	ret
	.cfi_endproc
LFE620:
	.section	.text$_ZNK14CPoolAllocator12getBlocksNumEv,"x"
	.linkonce discard
	.align 2
	.globl	__ZNK14CPoolAllocator12getBlocksNumEv
	.def	__ZNK14CPoolAllocator12getBlocksNumEv;	.scl	2;	.type	32;	.endef
__ZNK14CPoolAllocator12getBlocksNumEv:
LFB621:
	.cfi_startproc
	pushl	%ebp
	.cfi_def_cfa_offset 8
	.cfi_offset 5, -8
	movl	%esp, %ebp
	.cfi_def_cfa_register 5
	movl	8(%ebp), %eax
	movl	8(%eax), %eax
	popl	%ebp
	.cfi_restore 5
	.cfi_def_cfa 4, 4
	ret
	.cfi_endproc
LFE621:
	.section	.text$_ZNK14CPoolAllocator7getUsedEv,"x"
	.linkonce discard
	.align 2
	.globl	__ZNK14CPoolAllocator7getUsedEv
	.def	__ZNK14CPoolAllocator7getUsedEv;	.scl	2;	.type	32;	.endef
__ZNK14CPoolAllocator7getUsedEv:
LFB622:
	.cfi_startproc
	pushl	%ebp
	.cfi_def_cfa_offset 8
	.cfi_offset 5, -8
	movl	%esp, %ebp
	.cfi_def_cfa_register 5
	subl	$24, %esp
	movl	8(%ebp), %eax
	addl	$12, %eax
	movl	$5, 4(%esp)
	movl	%eax, (%esp)
	call	__ZNKSt13__atomic_baseIiE4loadESt12memory_order
	leave
	.cfi_restore 5
	.cfi_def_cfa 4, 4
	ret
	.cfi_endproc
LFE622:
	.section	.text$_ZNK14CPoolAllocator9getRemainEv,"x"
	.linkonce discard
	.align 2
	.globl	__ZNK14CPoolAllocator9getRemainEv
	.def	__ZNK14CPoolAllocator9getRemainEv;	.scl	2;	.type	32;	.endef
__ZNK14CPoolAllocator9getRemainEv:
LFB623:
	.cfi_startproc
	pushl	%ebp
	.cfi_def_cfa_offset 8
	.cfi_offset 5, -8
	movl	%esp, %ebp
	.cfi_def_cfa_register 5
	pushl	%ebx
	subl	$20, %esp
	.cfi_offset 3, -12
	movl	8(%ebp), %eax
	movl	8(%eax), %ebx
	movl	8(%ebp), %eax
	addl	$12, %eax
	movl	$5, 4(%esp)
	movl	%eax, (%esp)
	call	__ZNKSt13__atomic_baseIiE4loadESt12memory_order
	subl	%eax, %ebx
	movl	%ebx, %eax
	addl	$20, %esp
	popl	%ebx
	.cfi_restore 3
	popl	%ebp
	.cfi_restore 5
	.cfi_def_cfa 4, 4
	ret
	.cfi_endproc
LFE623:
	.section	.text$_ZN14CPoolAllocator8getBlockEi,"x"
	.linkonce discard
	.align 2
	.globl	__ZN14CPoolAllocator8getBlockEi
	.def	__ZN14CPoolAllocator8getBlockEi;	.scl	2;	.type	32;	.endef
__ZN14CPoolAllocator8getBlockEi:
LFB625:
	.cfi_startproc
	pushl	%ebp
	.cfi_def_cfa_offset 8
	.cfi_offset 5, -8
	movl	%esp, %ebp
	.cfi_def_cfa_register 5
	movl	8(%ebp), %eax
	movl	(%eax), %edx
	movl	8(%ebp), %eax
	movl	4(%eax), %ecx
	movl	12(%ebp), %eax
	imull	%ecx, %eax
	addl	%edx, %eax
	popl	%ebp
	.cfi_restore 5
	.cfi_def_cfa 4, 4
	ret
	.cfi_endproc
LFE625:
	.section	.text$_ZN14CPoolAllocator5resetEv,"x"
	.linkonce discard
	.align 2
	.globl	__ZN14CPoolAllocator5resetEv
	.def	__ZN14CPoolAllocator5resetEv;	.scl	2;	.type	32;	.endef
__ZN14CPoolAllocator5resetEv:
LFB626:
	.cfi_startproc
	pushl	%ebp
	.cfi_def_cfa_offset 8
	.cfi_offset 5, -8
	movl	%esp, %ebp
	.cfi_def_cfa_register 5
	subl	$24, %esp
	movl	8(%ebp), %eax
	addl	$12, %eax
	movl	$5, 8(%esp)
	movl	$0, 4(%esp)
	movl	%eax, (%esp)
	call	__ZNSt13__atomic_baseIiE5storeEiSt12memory_order
	movl	8(%ebp), %eax
	movl	$0, 16(%eax)
	movl	8(%ebp), %eax
	movl	$2147483647, 20(%eax)
	leave
	.cfi_restore 5
	.cfi_def_cfa 4, 4
	ret
	.cfi_endproc
LFE626:
	.section	.text$_ZN14CPoolAllocator6assignEv,"x"
	.linkonce discard
	.align 2
	.globl	__ZN14CPoolAllocator6assignEv
	.def	__ZN14CPoolAllocator6assignEv;	.scl	2;	.type	32;	.endef
__ZN14CPoolAllocator6assignEv:
LFB627:
	.cfi_startproc
	pushl	%ebp
	.cfi_def_cfa_offset 8
	.cfi_offset 5, -8
	movl	%esp, %ebp
	.cfi_def_cfa_register 5
	subl	$40, %esp
	movl	8(%ebp), %eax
	addl	$12, %eax
	movl	$5, 4(%esp)
	movl	%eax, (%esp)
	call	__ZNKSt13__atomic_baseIiE4loadESt12memory_order
	movl	8(%ebp), %edx
	movl	8(%edx), %edx
	cmpl	%edx, %eax
	setge	%al
	testb	%al, %al
	je	L539
	movl	$2147483647, %eax
	jmp	L540
L539:
	movl	$2147483647, -12(%ebp)
	movl	8(%ebp), %eax
	movl	16(%eax), %edx
	movl	8(%ebp), %eax
	movl	8(%eax), %eax
	cmpl	%eax, %edx
	jge	L541
	movl	8(%ebp), %eax
	movl	16(%eax), %eax
	leal	1(%eax), %ecx
	movl	8(%ebp), %edx
	movl	%ecx, 16(%edx)
	movl	%eax, -12(%ebp)
	movl	8(%ebp), %eax
	addl	$12, %eax
	movl	$5, 8(%esp)
	movl	$1, 4(%esp)
	movl	%eax, (%esp)
	call	__ZNSt13__atomic_baseIiE9fetch_addEiSt12memory_order
	jmp	L542
L541:
	movl	8(%ebp), %eax
	movl	20(%eax), %eax
	cmpl	$2147483647, %eax
	je	L542
	movl	8(%ebp), %eax
	movl	20(%eax), %eax
	movl	%eax, -12(%ebp)
	movl	-12(%ebp), %eax
	movl	%eax, 4(%esp)
	movl	8(%ebp), %eax
	movl	%eax, (%esp)
	call	__ZN14CPoolAllocator8getBlockEi
	movl	(%eax), %eax
	movl	%eax, %edx
	movl	8(%ebp), %eax
	movl	%edx, 20(%eax)
	movl	8(%ebp), %eax
	addl	$12, %eax
	movl	$5, 8(%esp)
	movl	$1, 4(%esp)
	movl	%eax, (%esp)
	call	__ZNSt13__atomic_baseIiE9fetch_addEiSt12memory_order
L542:
	movl	-12(%ebp), %eax
L540:
	leave
	.cfi_restore 5
	.cfi_def_cfa 4, 4
	ret
	.cfi_endproc
LFE627:
	.section	.text$_ZN14CPoolAllocator7releaseEi,"x"
	.linkonce discard
	.align 2
	.globl	__ZN14CPoolAllocator7releaseEi
	.def	__ZN14CPoolAllocator7releaseEi;	.scl	2;	.type	32;	.endef
__ZN14CPoolAllocator7releaseEi:
LFB628:
	.cfi_startproc
	pushl	%ebp
	.cfi_def_cfa_offset 8
	.cfi_offset 5, -8
	movl	%esp, %ebp
	.cfi_def_cfa_register 5
	subl	$24, %esp
	cmpl	$0, 12(%ebp)
	js	L544
	movl	8(%ebp), %eax
	movl	8(%eax), %eax
	cmpl	12(%ebp), %eax
	jg	L545
L544:
	jmp	L543
L545:
	movl	12(%ebp), %eax
	movl	%eax, 4(%esp)
	movl	8(%ebp), %eax
	movl	%eax, (%esp)
	call	__ZN14CPoolAllocator8getBlockEi
	movl	8(%ebp), %edx
	movl	20(%edx), %edx
	movl	%edx, (%eax)
	movl	8(%ebp), %eax
	movl	12(%ebp), %edx
	movl	%edx, 20(%eax)
	movl	8(%ebp), %eax
	addl	$12, %eax
	movl	$5, 8(%esp)
	movl	$1, 4(%esp)
	movl	%eax, (%esp)
	call	__ZNSt13__atomic_baseIiE9fetch_subEiSt12memory_order
L543:
	leave
	.cfi_restore 5
	.cfi_def_cfa 4, 4
	ret
	.cfi_endproc
LFE628:
	.section	.text$_ZN14CPoolAllocator5allocEj,"x"
	.linkonce discard
	.align 2
	.globl	__ZN14CPoolAllocator5allocEj
	.def	__ZN14CPoolAllocator5allocEj;	.scl	2;	.type	32;	.endef
__ZN14CPoolAllocator5allocEj:
LFB629:
	.cfi_startproc
	pushl	%ebp
	.cfi_def_cfa_offset 8
	.cfi_offset 5, -8
	movl	%esp, %ebp
	.cfi_def_cfa_register 5
	subl	$40, %esp
	movl	8(%ebp), %eax
	movl	4(%eax), %eax
	cmpl	12(%ebp), %eax
	jae	L548
	movl	$0, %eax
	jmp	L549
L548:
	movl	8(%ebp), %eax
	movl	%eax, (%esp)
	call	__ZN14CPoolAllocator6assignEv
	movl	%eax, -12(%ebp)
	cmpl	$2147483647, -12(%ebp)
	je	L550
	movl	-12(%ebp), %eax
	movl	%eax, 4(%esp)
	movl	8(%ebp), %eax
	movl	%eax, (%esp)
	call	__ZN14CPoolAllocator8getBlockEi
	jmp	L551
L550:
	movl	$0, %eax
L551:
L549:
	leave
	.cfi_restore 5
	.cfi_def_cfa 4, 4
	ret
	.cfi_endproc
LFE629:
	.section	.text$_ZN14CPoolAllocator4freeEPv,"x"
	.linkonce discard
	.align 2
	.globl	__ZN14CPoolAllocator4freeEPv
	.def	__ZN14CPoolAllocator4freeEPv;	.scl	2;	.type	32;	.endef
__ZN14CPoolAllocator4freeEPv:
LFB630:
	.cfi_startproc
	pushl	%ebp
	.cfi_def_cfa_offset 8
	.cfi_offset 5, -8
	movl	%esp, %ebp
	.cfi_def_cfa_register 5
	subl	$40, %esp
	cmpl	$0, 12(%ebp)
	jne	L553
	jmp	L552
L553:
	movl	12(%ebp), %edx
	movl	8(%ebp), %eax
	movl	(%eax), %eax
	subl	%eax, %edx
	movl	%edx, %eax
	movl	%eax, -12(%ebp)
	movl	-12(%ebp), %eax
	movl	8(%ebp), %edx
	movl	4(%edx), %ecx
	movl	$0, %edx
	divl	%ecx
	movl	%eax, -16(%ebp)
	movl	-16(%ebp), %eax
	movl	%eax, 4(%esp)
	movl	8(%ebp), %eax
	movl	%eax, (%esp)
	call	__ZN14CPoolAllocator7releaseEi
L552:
	leave
	.cfi_restore 5
	.cfi_def_cfa 4, 4
	ret
	.cfi_endproc
LFE630:
	.section	.text$_ZNSt13__atomic_baseIiEC2Ev,"x"
	.linkonce discard
	.align 2
	.globl	__ZNSt13__atomic_baseIiEC2Ev
	.def	__ZNSt13__atomic_baseIiEC2Ev;	.scl	2;	.type	32;	.endef
__ZNSt13__atomic_baseIiEC2Ev:
LFB636:
	.cfi_startproc
	pushl	%ebp
	.cfi_def_cfa_offset 8
	.cfi_offset 5, -8
	movl	%esp, %ebp
	.cfi_def_cfa_register 5
	popl	%ebp
	.cfi_restore 5
	.cfi_def_cfa 4, 4
	ret
	.cfi_endproc
LFE636:
	.section	.text$_ZNSt6atomicIiEC1Ev,"x"
	.linkonce discard
	.align 2
	.globl	__ZNSt6atomicIiEC1Ev
	.def	__ZNSt6atomicIiEC1Ev;	.scl	2;	.type	32;	.endef
__ZNSt6atomicIiEC1Ev:
LFB639:
	.cfi_startproc
	pushl	%ebp
	.cfi_def_cfa_offset 8
	.cfi_offset 5, -8
	movl	%esp, %ebp
	.cfi_def_cfa_register 5
	subl	$4, %esp
	movl	8(%ebp), %eax
	movl	%eax, (%esp)
	call	__ZNSt13__atomic_baseIiEC2Ev
	leave
	.cfi_restore 5
	.cfi_def_cfa 4, 4
	ret
	.cfi_endproc
LFE639:
	.section	.text$_ZN14CPoolAllocatorC2EPvji,"x"
	.linkonce discard
	.align 2
	.globl	__ZN14CPoolAllocatorC2EPvji
	.def	__ZN14CPoolAllocatorC2EPvji;	.scl	2;	.type	32;	.endef
__ZN14CPoolAllocatorC2EPvji:
LFB640:
	.cfi_startproc
	pushl	%ebp
	.cfi_def_cfa_offset 8
	.cfi_offset 5, -8
	movl	%esp, %ebp
	.cfi_def_cfa_register 5
	subl	$24, %esp
	movl	8(%ebp), %eax
	movl	12(%ebp), %edx
	movl	%edx, (%eax)
	movl	8(%ebp), %eax
	movl	16(%ebp), %edx
	movl	%edx, 4(%eax)
	movl	8(%ebp), %eax
	movl	20(%ebp), %edx
	movl	%edx, 8(%eax)
	movl	8(%ebp), %eax
	addl	$12, %eax
	movl	%eax, (%esp)
	call	__ZNSt6atomicIiEC1Ev
	movl	8(%ebp), %eax
	movl	%eax, (%esp)
	call	__ZN14CPoolAllocator5resetEv
	leave
	.cfi_restore 5
	.cfi_def_cfa 4, 4
	ret
	.cfi_endproc
LFE640:
	.section	.text$_ZN14CPoolAllocatorD2Ev,"x"
	.linkonce discard
	.align 2
	.globl	__ZN14CPoolAllocatorD2Ev
	.def	__ZN14CPoolAllocatorD2Ev;	.scl	2;	.type	32;	.endef
__ZN14CPoolAllocatorD2Ev:
LFB643:
	.cfi_startproc
	pushl	%ebp
	.cfi_def_cfa_offset 8
	.cfi_offset 5, -8
	movl	%esp, %ebp
	.cfi_def_cfa_register 5
	popl	%ebp
	.cfi_restore 5
	.cfi_def_cfa 4, 4
	ret
	.cfi_endproc
LFE643:
	.section .rdata,"dr"
	.align 4
LC102:
	.ascii "placement new(size=%d, pool_allocator.used=%d/%d/%d)\12\0"
	.text
	.globl	__ZnwjR14CPoolAllocator
	.def	__ZnwjR14CPoolAllocator;	.scl	2;	.type	32;	.endef
__ZnwjR14CPoolAllocator:
LFB645:
	.cfi_startproc
	.cfi_personality 0,___gxx_personality_v0
	.cfi_lsda 0,LLSDA645
	pushl	%ebp
	.cfi_def_cfa_offset 8
	.cfi_offset 5, -8
	movl	%esp, %ebp
	.cfi_def_cfa_register 5
	pushl	%esi
	pushl	%ebx
	subl	$32, %esp
	.cfi_offset 6, -12
	.cfi_offset 3, -16
	movl	12(%ebp), %eax
	movl	%eax, (%esp)
	call	__ZNK14CPoolAllocator9getRemainEv
	movl	%eax, %esi
	movl	12(%ebp), %eax
	movl	%eax, (%esp)
	call	__ZNK14CPoolAllocator7getUsedEv
	movl	%eax, %ebx
	movl	12(%ebp), %eax
	movl	%eax, (%esp)
	call	__ZNK14CPoolAllocator12getBlocksNumEv
	movl	%esi, 16(%esp)
	movl	%ebx, 12(%esp)
	movl	%eax, 8(%esp)
	movl	8(%ebp), %eax
	movl	%eax, 4(%esp)
	movl	$LC102, (%esp)
LEHB114:
	call	_printf
LEHE114:
	movl	8(%ebp), %eax
	movl	%eax, 4(%esp)
	movl	12(%ebp), %eax
	movl	%eax, (%esp)
	call	__ZN14CPoolAllocator5allocEj
	jmp	L565
L564:
	cmpl	$-1, %edx
	je	L563
	movl	%eax, (%esp)
LEHB115:
	call	__Unwind_Resume
L563:
	movl	%eax, (%esp)
	call	___cxa_call_unexpected
LEHE115:
L565:
	addl	$32, %esp
	popl	%ebx
	.cfi_restore 3
	popl	%esi
	.cfi_restore 6
	popl	%ebp
	.cfi_restore 5
	.cfi_def_cfa 4, 4
	ret
	.cfi_endproc
LFE645:
	.section	.gcc_except_table,"w"
	.align 4
LLSDA645:
	.byte	0xff
	.byte	0
	.uleb128 LLSDATT645-LLSDATTD645
LLSDATTD645:
	.byte	0x1
	.uleb128 LLSDACSE645-LLSDACSB645
LLSDACSB645:
	.uleb128 LEHB114-LFB645
	.uleb128 LEHE114-LEHB114
	.uleb128 L564-LFB645
	.uleb128 0x1
	.uleb128 LEHB115-LFB645
	.uleb128 LEHE115-LEHB115
	.uleb128 0
	.uleb128 0
LLSDACSE645:
	.byte	0x7f
	.byte	0
	.align 4
LLSDATT645:
	.byte	0
	.text
	.section .rdata,"dr"
	.align 4
LC103:
	.ascii "placement delete(p=0x%p, pool_allocator.used=%d/%d/%d)\12\0"
	.text
	.globl	__ZdlPvR14CPoolAllocator
	.def	__ZdlPvR14CPoolAllocator;	.scl	2;	.type	32;	.endef
__ZdlPvR14CPoolAllocator:
LFB646:
	.cfi_startproc
	.cfi_personality 0,___gxx_personality_v0
	.cfi_lsda 0,LLSDA646
	pushl	%ebp
	.cfi_def_cfa_offset 8
	.cfi_offset 5, -8
	movl	%esp, %ebp
	.cfi_def_cfa_register 5
	pushl	%esi
	pushl	%ebx
	subl	$32, %esp
	.cfi_offset 6, -12
	.cfi_offset 3, -16
	movl	12(%ebp), %eax
	movl	%eax, (%esp)
	call	__ZNK14CPoolAllocator9getRemainEv
	movl	%eax, %esi
	movl	12(%ebp), %eax
	movl	%eax, (%esp)
	call	__ZNK14CPoolAllocator7getUsedEv
	movl	%eax, %ebx
	movl	12(%ebp), %eax
	movl	%eax, (%esp)
	call	__ZNK14CPoolAllocator12getBlocksNumEv
	movl	%esi, 16(%esp)
	movl	%ebx, 12(%esp)
	movl	%eax, 8(%esp)
	movl	8(%ebp), %eax
	movl	%eax, 4(%esp)
	movl	$LC103, (%esp)
LEHB116:
	call	_printf
LEHE116:
	movl	8(%ebp), %eax
	movl	%eax, 4(%esp)
	movl	12(%ebp), %eax
	movl	%eax, (%esp)
	call	__ZN14CPoolAllocator4freeEPv
	jmp	L570
L569:
	cmpl	$-1, %edx
	je	L568
	movl	%eax, (%esp)
LEHB117:
	call	__Unwind_Resume
L568:
	movl	%eax, (%esp)
	call	___cxa_call_unexpected
LEHE117:
L570:
	addl	$32, %esp
	popl	%ebx
	.cfi_restore 3
	popl	%esi
	.cfi_restore 6
	popl	%ebp
	.cfi_restore 5
	.cfi_def_cfa 4, 4
	ret
	.cfi_endproc
LFE646:
	.section	.gcc_except_table,"w"
	.align 4
LLSDA646:
	.byte	0xff
	.byte	0
	.uleb128 LLSDATT646-LLSDATTD646
LLSDATTD646:
	.byte	0x1
	.uleb128 LLSDACSE646-LLSDACSB646
LLSDACSB646:
	.uleb128 LEHB116-LFB646
	.uleb128 LEHE116-LEHB116
	.uleb128 L569-LFB646
	.uleb128 0x1
	.uleb128 LEHB117-LFB646
	.uleb128 LEHE117-LEHB117
	.uleb128 0
	.uleb128 0
LLSDACSE646:
	.byte	0x7f
	.byte	0
	.align 4
LLSDATT646:
	.byte	0
	.text
	.section .rdata,"dr"
	.align 4
LC104:
	.ascii "CTest5::Constructor : name=\"%s\"\12\0"
	.section	.text$_ZN6CTest5C1EPKc,"x"
	.linkonce discard
	.align 2
	.globl	__ZN6CTest5C1EPKc
	.def	__ZN6CTest5C1EPKc;	.scl	2;	.type	32;	.endef
__ZN6CTest5C1EPKc:
LFB658:
	.cfi_startproc
	pushl	%ebp
	.cfi_def_cfa_offset 8
	.cfi_offset 5, -8
	movl	%esp, %ebp
	.cfi_def_cfa_register 5
	subl	$24, %esp
	movl	8(%ebp), %eax
	movl	12(%ebp), %edx
	movl	%edx, (%eax)
	movl	8(%ebp), %eax
	movl	(%eax), %eax
	movl	%eax, 4(%esp)
	movl	$LC104, (%esp)
	call	_printf
	leave
	.cfi_restore 5
	.cfi_def_cfa 4, 4
	ret
	.cfi_endproc
LFE658:
	.section .rdata,"dr"
	.align 4
LC105:
	.ascii "CTest5::Destructor : name=\"%s\"\12\0"
	.section	.text$_ZN6CTest5D1Ev,"x"
	.linkonce discard
	.align 2
	.globl	__ZN6CTest5D1Ev
	.def	__ZN6CTest5D1Ev;	.scl	2;	.type	32;	.endef
__ZN6CTest5D1Ev:
LFB661:
	.cfi_startproc
	.cfi_personality 0,___gxx_personality_v0
	.cfi_lsda 0,LLSDA661
	pushl	%ebp
	.cfi_def_cfa_offset 8
	.cfi_offset 5, -8
	movl	%esp, %ebp
	.cfi_def_cfa_register 5
	subl	$24, %esp
	movl	8(%ebp), %eax
	movl	(%eax), %eax
	movl	%eax, 4(%esp)
	movl	$LC105, (%esp)
	call	_printf
	leave
	.cfi_restore 5
	.cfi_def_cfa 4, 4
	ret
	.cfi_endproc
LFE661:
	.section	.gcc_except_table,"w"
LLSDA661:
	.byte	0xff
	.byte	0xff
	.byte	0x1
	.uleb128 LLSDACSE661-LLSDACSB661
LLSDACSB661:
LLSDACSE661:
	.section	.text$_ZN6CTest5D1Ev,"x"
	.linkonce discard
	.section .rdata,"dr"
	.align 4
LC106:
	.ascii "---------- test5:\343\203\227\343\203\274\343\203\253\343\202\242\343\203\255\343\202\261\343\203\274\343\202\277 ----------\0"
LC107:
	.ascii "\343\203\206\343\202\271\343\203\210"
	.ascii "5-1\0"
LC108:
	.ascii "\343\203\206\343\202\271\343\203\210"
	.ascii "5-2\0"
LC109:
	.ascii "\343\203\206\343\202\271\343\203\210"
	.ascii "5-3\0"
LC110:
	.ascii "obj3_p=0x%p\12\0"
LC111:
	.ascii "\343\203\206\343\202\271\343\203\210"
	.ascii "5-4\0"
LC112:
	.ascii "obj4_p=0x%p\12\0"
LC113:
	.ascii "\343\203\206\343\202\271\343\203\210"
	.ascii "5-5\0"
LC114:
	.ascii "obj5_p=0x%p\12\0"
LC115:
	.ascii "\343\203\206\343\202\271\343\203\210"
	.ascii "5-6\0"
LC116:
	.ascii "obj6_p=0x%p\12\0"
LC117:
	.ascii "obj_l_p=0x%p\12\0"
LC118:
	.ascii "c_p=0x%p\12\0"
LC119:
	.ascii "s_p=0x%p\12\0"
LC120:
	.ascii "i_p=0x%p\12\0"
LC121:
	.ascii "f_p=0x%p\12\0"
LC122:
	.ascii "d_p=0x%p\12\0"
LC123:
	.ascii "ll_p=0x%p\12\0"
	.text
	.globl	__Z5test5v
	.def	__Z5test5v;	.scl	2;	.type	32;	.endef
__Z5test5v:
LFB662:
	.cfi_startproc
	.cfi_personality 0,___gxx_personality_v0
	.cfi_lsda 0,LLSDA662
	pushl	%ebp
	.cfi_def_cfa_offset 8
	.cfi_offset 5, -8
	movl	%esp, %ebp
	.cfi_def_cfa_register 5
	pushl	%ebx
	subl	$148, %esp
	.cfi_offset 3, -12
	movl	$LC106, (%esp)
LEHB118:
	call	_puts
	leal	-124(%ebp), %eax
	movl	%eax, (%esp)
	call	__ZN22CPoolAllocatorWithTypeI6CTest5Li5EEC1Ev
LEHE118:
	leal	-124(%ebp), %eax
	movl	%eax, (%esp)
	call	__ZNK14CPoolAllocator7getBuffEv
	movl	%eax, 4(%esp)
	movl	$LC3, (%esp)
LEHB119:
	call	_printf
LEHE119:
	movl	$LC81, (%esp)
LEHB120:
	call	_puts
	movl	$LC107, 4(%esp)
	leal	-124(%ebp), %eax
	movl	%eax, (%esp)
	call	__ZN22CPoolAllocatorWithTypeI6CTest5Li5EE10createDataIIPKcEEEPS0_DpT_
	movl	%eax, -12(%ebp)
	movl	-12(%ebp), %eax
	movl	%eax, 4(%esp)
	movl	$LC87, (%esp)
	call	_printf
	movl	$LC108, 4(%esp)
	leal	-124(%ebp), %eax
	movl	%eax, (%esp)
	call	__ZN22CPoolAllocatorWithTypeI6CTest5Li5EE10createDataIIPKcEEEPS0_DpT_
	movl	%eax, -16(%ebp)
	movl	-16(%ebp), %eax
	movl	%eax, 4(%esp)
	movl	$LC89, (%esp)
	call	_printf
	movl	$LC109, 4(%esp)
	leal	-124(%ebp), %eax
	movl	%eax, (%esp)
	call	__ZN22CPoolAllocatorWithTypeI6CTest5Li5EE10createDataIIPKcEEEPS0_DpT_
	movl	%eax, -20(%ebp)
	movl	-20(%ebp), %eax
	movl	%eax, 4(%esp)
	movl	$LC110, (%esp)
	call	_printf
	movl	$LC111, 4(%esp)
	leal	-124(%ebp), %eax
	movl	%eax, (%esp)
	call	__ZN22CPoolAllocatorWithTypeI6CTest5Li5EE10createDataIIPKcEEEPS0_DpT_
	movl	%eax, -24(%ebp)
	movl	-24(%ebp), %eax
	movl	%eax, 4(%esp)
	movl	$LC112, (%esp)
	call	_printf
	movl	$LC113, 4(%esp)
	leal	-124(%ebp), %eax
	movl	%eax, (%esp)
	call	__ZN22CPoolAllocatorWithTypeI6CTest5Li5EE10createDataIIPKcEEEPS0_DpT_
	movl	%eax, -28(%ebp)
	movl	-28(%ebp), %eax
	movl	%eax, 4(%esp)
	movl	$LC114, (%esp)
	call	_printf
	movl	$LC115, 4(%esp)
	leal	-124(%ebp), %eax
	movl	%eax, (%esp)
	call	__ZN22CPoolAllocatorWithTypeI6CTest5Li5EE10createDataIIPKcEEEPS0_DpT_
	movl	%eax, -32(%ebp)
	movl	-32(%ebp), %eax
	movl	%eax, 4(%esp)
	movl	$LC116, (%esp)
	call	_printf
	leal	-12(%ebp), %eax
	movl	%eax, 4(%esp)
	leal	-124(%ebp), %eax
	movl	%eax, (%esp)
	call	__ZN22CPoolAllocatorWithTypeI6CTest5Li5EE11destroyDataERPS0_
	leal	-16(%ebp), %eax
	movl	%eax, 4(%esp)
	leal	-124(%ebp), %eax
	movl	%eax, (%esp)
	call	__ZN22CPoolAllocatorWithTypeI6CTest5Li5EE11destroyDataERPS0_
	leal	-20(%ebp), %eax
	movl	%eax, 4(%esp)
	leal	-124(%ebp), %eax
	movl	%eax, (%esp)
	call	__ZN22CPoolAllocatorWithTypeI6CTest5Li5EE11destroyDataERPS0_
	leal	-24(%ebp), %eax
	movl	%eax, 4(%esp)
	leal	-124(%ebp), %eax
	movl	%eax, (%esp)
	call	__ZN22CPoolAllocatorWithTypeI6CTest5Li5EE11destroyDataERPS0_
	leal	-28(%ebp), %eax
	movl	%eax, 4(%esp)
	leal	-124(%ebp), %eax
	movl	%eax, (%esp)
	call	__ZN22CPoolAllocatorWithTypeI6CTest5Li5EE11destroyDataERPS0_
	leal	-32(%ebp), %eax
	movl	%eax, 4(%esp)
	leal	-124(%ebp), %eax
	movl	%eax, (%esp)
	call	__ZN22CPoolAllocatorWithTypeI6CTest5Li5EE11destroyDataERPS0_
LEHE120:
	movl	$LC81, (%esp)
LEHB121:
	call	_puts
	leal	-124(%ebp), %eax
	movl	%eax, (%esp)
	call	__ZN14CPoolAllocator6createI7CTest5LIEEEPT_DpT0_
	movl	%eax, -36(%ebp)
	movl	-36(%ebp), %eax
	movl	%eax, 4(%esp)
	movl	$LC117, (%esp)
	call	_printf
	leal	-124(%ebp), %eax
	movl	%eax, (%esp)
	call	__ZN14CPoolAllocator6createIcIEEEPT_DpT0_
	movl	%eax, -40(%ebp)
	movl	-40(%ebp), %eax
	movl	%eax, 4(%esp)
	movl	$LC118, (%esp)
	call	_printf
	leal	-124(%ebp), %eax
	movl	%eax, (%esp)
	call	__ZN14CPoolAllocator6createIsIEEEPT_DpT0_
	movl	%eax, -44(%ebp)
	movl	-44(%ebp), %eax
	movl	%eax, 4(%esp)
	movl	$LC119, (%esp)
	call	_printf
	leal	-124(%ebp), %eax
	movl	%eax, (%esp)
	call	__ZN14CPoolAllocator6createIiIEEEPT_DpT0_
	movl	%eax, -48(%ebp)
	movl	-48(%ebp), %eax
	movl	%eax, 4(%esp)
	movl	$LC120, (%esp)
	call	_printf
	leal	-124(%ebp), %eax
	movl	%eax, (%esp)
	call	__ZN14CPoolAllocator6createIfIEEEPT_DpT0_
	movl	%eax, -52(%ebp)
	movl	-52(%ebp), %eax
	movl	%eax, 4(%esp)
	movl	$LC121, (%esp)
	call	_printf
	leal	-124(%ebp), %eax
	movl	%eax, (%esp)
	call	__ZN14CPoolAllocator6createIdIEEEPT_DpT0_
	movl	%eax, -56(%ebp)
	movl	-56(%ebp), %eax
	movl	%eax, 4(%esp)
	movl	$LC122, (%esp)
	call	_printf
	leal	-124(%ebp), %eax
	movl	%eax, (%esp)
	call	__ZN14CPoolAllocator6createIxIEEEPT_DpT0_
	movl	%eax, -60(%ebp)
	movl	-60(%ebp), %eax
	movl	%eax, 4(%esp)
	movl	$LC123, (%esp)
	call	_printf
LEHE121:
	leal	-36(%ebp), %eax
	movl	%eax, 4(%esp)
	leal	-124(%ebp), %eax
	movl	%eax, (%esp)
	call	__ZN14CPoolAllocator7destroyI7CTest5LEEvRPT_
	leal	-40(%ebp), %eax
	movl	%eax, 4(%esp)
	leal	-124(%ebp), %eax
	movl	%eax, (%esp)
	call	__ZN14CPoolAllocator7destroyIcEEvRPT_
	leal	-44(%ebp), %eax
	movl	%eax, 4(%esp)
	leal	-124(%ebp), %eax
	movl	%eax, (%esp)
	call	__ZN14CPoolAllocator7destroyIsEEvRPT_
	leal	-48(%ebp), %eax
	movl	%eax, 4(%esp)
	leal	-124(%ebp), %eax
	movl	%eax, (%esp)
	call	__ZN14CPoolAllocator7destroyIiEEvRPT_
	leal	-52(%ebp), %eax
	movl	%eax, 4(%esp)
	leal	-124(%ebp), %eax
	movl	%eax, (%esp)
	call	__ZN14CPoolAllocator7destroyIfEEvRPT_
	leal	-56(%ebp), %eax
	movl	%eax, 4(%esp)
	leal	-124(%ebp), %eax
	movl	%eax, (%esp)
	call	__ZN14CPoolAllocator7destroyIdEEvRPT_
	leal	-60(%ebp), %eax
	movl	%eax, 4(%esp)
	leal	-124(%ebp), %eax
	movl	%eax, (%esp)
	call	__ZN14CPoolAllocator7destroyIxEEvRPT_
	leal	-124(%ebp), %eax
	movl	%eax, (%esp)
	call	__ZN22CPoolAllocatorWithTypeI6CTest5Li5EED1Ev
	jmp	L583
L581:
	movl	%eax, %ebx
	jmp	L576
L582:
	movl	%eax, %ebx
	jmp	L576
L580:
	movl	%eax, %ebx
L576:
	leal	-124(%ebp), %eax
	movl	%eax, (%esp)
	call	__ZN22CPoolAllocatorWithTypeI6CTest5Li5EED1Ev
	movl	%ebx, %eax
	jmp	L578
L579:
L578:
	movl	%eax, (%esp)
LEHB122:
	call	__Unwind_Resume
LEHE122:
L583:
	addl	$148, %esp
	popl	%ebx
	.cfi_restore 3
	popl	%ebp
	.cfi_restore 5
	.cfi_def_cfa 4, 4
	ret
	.cfi_endproc
LFE662:
	.section	.gcc_except_table,"w"
LLSDA662:
	.byte	0xff
	.byte	0xff
	.byte	0x1
	.uleb128 LLSDACSE662-LLSDACSB662
LLSDACSB662:
	.uleb128 LEHB118-LFB662
	.uleb128 LEHE118-LEHB118
	.uleb128 L579-LFB662
	.uleb128 0
	.uleb128 LEHB119-LFB662
	.uleb128 LEHE119-LEHB119
	.uleb128 L580-LFB662
	.uleb128 0
	.uleb128 LEHB120-LFB662
	.uleb128 LEHE120-LEHB120
	.uleb128 L581-LFB662
	.uleb128 0
	.uleb128 LEHB121-LFB662
	.uleb128 LEHE121-LEHB121
	.uleb128 L582-LFB662
	.uleb128 0
	.uleb128 LEHB122-LFB662
	.uleb128 LEHE122-LEHB122
	.uleb128 0
	.uleb128 0
LLSDACSE662:
	.text
	.section	.text$_ZN10IAllocatorD2Ev,"x"
	.linkonce discard
	.align 2
	.globl	__ZN10IAllocatorD2Ev
	.def	__ZN10IAllocatorD2Ev;	.scl	2;	.type	32;	.endef
__ZN10IAllocatorD2Ev:
LFB664:
	.cfi_startproc
	pushl	%ebp
	.cfi_def_cfa_offset 8
	.cfi_offset 5, -8
	movl	%esp, %ebp
	.cfi_def_cfa_register 5
	subl	$24, %esp
	movl	8(%ebp), %eax
	movl	$__ZTV10IAllocator+8, (%eax)
	movl	$0, %eax
	testl	%eax, %eax
	je	L584
	movl	8(%ebp), %eax
	movl	%eax, (%esp)
	call	__ZdlPv
L584:
	leave
	.cfi_restore 5
	.cfi_def_cfa 4, 4
	ret
	.cfi_endproc
LFE664:
	.section	.text$_ZN10IAllocatorD1Ev,"x"
	.linkonce discard
	.align 2
	.globl	__ZN10IAllocatorD1Ev
	.def	__ZN10IAllocatorD1Ev;	.scl	2;	.type	32;	.endef
__ZN10IAllocatorD1Ev:
LFB665:
	.cfi_startproc
	pushl	%ebp
	.cfi_def_cfa_offset 8
	.cfi_offset 5, -8
	movl	%esp, %ebp
	.cfi_def_cfa_register 5
	subl	$24, %esp
	movl	8(%ebp), %eax
	movl	$__ZTV10IAllocator+8, (%eax)
	movl	$0, %eax
	testl	%eax, %eax
	je	L587
	movl	8(%ebp), %eax
	movl	%eax, (%esp)
	call	__ZdlPv
L587:
	leave
	.cfi_restore 5
	.cfi_def_cfa 4, 4
	ret
	.cfi_endproc
LFE665:
	.section	.text$_ZN10IAllocatorD0Ev,"x"
	.linkonce discard
	.align 2
	.globl	__ZN10IAllocatorD0Ev
	.def	__ZN10IAllocatorD0Ev;	.scl	2;	.type	32;	.endef
__ZN10IAllocatorD0Ev:
LFB666:
	.cfi_startproc
	pushl	%ebp
	.cfi_def_cfa_offset 8
	.cfi_offset 5, -8
	movl	%esp, %ebp
	.cfi_def_cfa_register 5
	subl	$24, %esp
	movl	8(%ebp), %eax
	movl	%eax, (%esp)
	call	__ZN10IAllocatorD1Ev
	movl	8(%ebp), %eax
	movl	%eax, (%esp)
	call	__ZdlPv
	leave
	.cfi_restore 5
	.cfi_def_cfa 4, 4
	ret
	.cfi_endproc
LFE666:
	.section .rdata,"dr"
LC124:
	.ascii "CStdAllocAdp\0"
	.section	.text$_ZNK12CStdAllocAdp7getNameEv,"x"
	.linkonce discard
	.align 2
	.globl	__ZNK12CStdAllocAdp7getNameEv
	.def	__ZNK12CStdAllocAdp7getNameEv;	.scl	2;	.type	32;	.endef
__ZNK12CStdAllocAdp7getNameEv:
LFB667:
	.cfi_startproc
	pushl	%ebp
	.cfi_def_cfa_offset 8
	.cfi_offset 5, -8
	movl	%esp, %ebp
	.cfi_def_cfa_register 5
	movl	$LC124, %eax
	popl	%ebp
	.cfi_restore 5
	.cfi_def_cfa 4, 4
	ret
	.cfi_endproc
LFE667:
	.section	.text$_ZNK12CStdAllocAdp8getTotalEv,"x"
	.linkonce discard
	.align 2
	.globl	__ZNK12CStdAllocAdp8getTotalEv
	.def	__ZNK12CStdAllocAdp8getTotalEv;	.scl	2;	.type	32;	.endef
__ZNK12CStdAllocAdp8getTotalEv:
LFB668:
	.cfi_startproc
	pushl	%ebp
	.cfi_def_cfa_offset 8
	.cfi_offset 5, -8
	movl	%esp, %ebp
	.cfi_def_cfa_register 5
	movl	$0, %eax
	popl	%ebp
	.cfi_restore 5
	.cfi_def_cfa 4, 4
	ret
	.cfi_endproc
LFE668:
	.section	.text$_ZNK12CStdAllocAdp7getUsedEv,"x"
	.linkonce discard
	.align 2
	.globl	__ZNK12CStdAllocAdp7getUsedEv
	.def	__ZNK12CStdAllocAdp7getUsedEv;	.scl	2;	.type	32;	.endef
__ZNK12CStdAllocAdp7getUsedEv:
LFB669:
	.cfi_startproc
	pushl	%ebp
	.cfi_def_cfa_offset 8
	.cfi_offset 5, -8
	movl	%esp, %ebp
	.cfi_def_cfa_register 5
	movl	$0, %eax
	popl	%ebp
	.cfi_restore 5
	.cfi_def_cfa 4, 4
	ret
	.cfi_endproc
LFE669:
	.section	.text$_ZNK12CStdAllocAdp9getRemainEv,"x"
	.linkonce discard
	.align 2
	.globl	__ZNK12CStdAllocAdp9getRemainEv
	.def	__ZNK12CStdAllocAdp9getRemainEv;	.scl	2;	.type	32;	.endef
__ZNK12CStdAllocAdp9getRemainEv:
LFB670:
	.cfi_startproc
	pushl	%ebp
	.cfi_def_cfa_offset 8
	.cfi_offset 5, -8
	movl	%esp, %ebp
	.cfi_def_cfa_register 5
	movl	$0, %eax
	popl	%ebp
	.cfi_restore 5
	.cfi_def_cfa 4, 4
	ret
	.cfi_endproc
LFE670:
	.section	.text$_ZN12CStdAllocAdpnwEj,"x"
	.linkonce discard
	.globl	__ZN12CStdAllocAdpnwEj
	.def	__ZN12CStdAllocAdpnwEj;	.scl	2;	.type	32;	.endef
__ZN12CStdAllocAdpnwEj:
LFB671:
	.cfi_startproc
	pushl	%ebp
	.cfi_def_cfa_offset 8
	.cfi_offset 5, -8
	movl	%esp, %ebp
	.cfi_def_cfa_register 5
	movl	$__ZN12CStdAllocAdp6m_buffE, %eax
	popl	%ebp
	.cfi_restore 5
	.cfi_def_cfa 4, 4
	ret
	.cfi_endproc
LFE671:
	.section	.text$_ZN12CStdAllocAdpdlEPv,"x"
	.linkonce discard
	.globl	__ZN12CStdAllocAdpdlEPv
	.def	__ZN12CStdAllocAdpdlEPv;	.scl	2;	.type	32;	.endef
__ZN12CStdAllocAdpdlEPv:
LFB672:
	.cfi_startproc
	pushl	%ebp
	.cfi_def_cfa_offset 8
	.cfi_offset 5, -8
	movl	%esp, %ebp
	.cfi_def_cfa_register 5
	popl	%ebp
	.cfi_restore 5
	.cfi_def_cfa 4, 4
	ret
	.cfi_endproc
LFE672:
	.section	.text$_ZN12CStdAllocAdp5allocEjjPK10ALLOC_INFO,"x"
	.linkonce discard
	.align 2
	.globl	__ZN12CStdAllocAdp5allocEjjPK10ALLOC_INFO
	.def	__ZN12CStdAllocAdp5allocEjjPK10ALLOC_INFO;	.scl	2;	.type	32;	.endef
__ZN12CStdAllocAdp5allocEjjPK10ALLOC_INFO:
LFB673:
	.cfi_startproc
	pushl	%ebp
	.cfi_def_cfa_offset 8
	.cfi_offset 5, -8
	movl	%esp, %ebp
	.cfi_def_cfa_register 5
	subl	$24, %esp
	movl	12(%ebp), %eax
	movl	%eax, 4(%esp)
	movl	16(%ebp), %eax
	movl	%eax, (%esp)
	call	_memalign
	leave
	.cfi_restore 5
	.cfi_def_cfa 4, 4
	ret
	.cfi_endproc
LFE673:
	.section	.text$_ZN12CStdAllocAdp4freeEPv,"x"
	.linkonce discard
	.align 2
	.globl	__ZN12CStdAllocAdp4freeEPv
	.def	__ZN12CStdAllocAdp4freeEPv;	.scl	2;	.type	32;	.endef
__ZN12CStdAllocAdp4freeEPv:
LFB674:
	.cfi_startproc
	pushl	%ebp
	.cfi_def_cfa_offset 8
	.cfi_offset 5, -8
	movl	%esp, %ebp
	.cfi_def_cfa_register 5
	subl	$24, %esp
	cmpl	$0, 12(%ebp)
	jne	L606
	jmp	L605
L606:
	movl	12(%ebp), %eax
	movl	%eax, (%esp)
	call	_free
L605:
	leave
	.cfi_restore 5
	.cfi_def_cfa 4, 4
	ret
	.cfi_endproc
LFE674:
	.section	.text$_ZN10IAllocatorC2Ev,"x"
	.linkonce discard
	.align 2
	.globl	__ZN10IAllocatorC2Ev
	.def	__ZN10IAllocatorC2Ev;	.scl	2;	.type	32;	.endef
__ZN10IAllocatorC2Ev:
LFB677:
	.cfi_startproc
	pushl	%ebp
	.cfi_def_cfa_offset 8
	.cfi_offset 5, -8
	movl	%esp, %ebp
	.cfi_def_cfa_register 5
	movl	8(%ebp), %eax
	movl	$__ZTV10IAllocator+8, (%eax)
	popl	%ebp
	.cfi_restore 5
	.cfi_def_cfa 4, 4
	ret
	.cfi_endproc
LFE677:
	.section	.text$_ZN12CStdAllocAdpC1Ev,"x"
	.linkonce discard
	.align 2
	.globl	__ZN12CStdAllocAdpC1Ev
	.def	__ZN12CStdAllocAdpC1Ev;	.scl	2;	.type	32;	.endef
__ZN12CStdAllocAdpC1Ev:
LFB680:
	.cfi_startproc
	pushl	%ebp
	.cfi_def_cfa_offset 8
	.cfi_offset 5, -8
	movl	%esp, %ebp
	.cfi_def_cfa_register 5
	subl	$4, %esp
	movl	8(%ebp), %eax
	movl	%eax, (%esp)
	call	__ZN10IAllocatorC2Ev
	movl	8(%ebp), %eax
	movl	$__ZTV12CStdAllocAdp+8, (%eax)
	leave
	.cfi_restore 5
	.cfi_def_cfa 4, 4
	ret
	.cfi_endproc
LFE680:
	.section	.text$_ZN12CStdAllocAdpD1Ev,"x"
	.linkonce discard
	.align 2
	.globl	__ZN12CStdAllocAdpD1Ev
	.def	__ZN12CStdAllocAdpD1Ev;	.scl	2;	.type	32;	.endef
__ZN12CStdAllocAdpD1Ev:
LFB683:
	.cfi_startproc
	pushl	%ebp
	.cfi_def_cfa_offset 8
	.cfi_offset 5, -8
	movl	%esp, %ebp
	.cfi_def_cfa_register 5
	subl	$24, %esp
	movl	8(%ebp), %eax
	movl	$__ZTV12CStdAllocAdp+8, (%eax)
	movl	8(%ebp), %eax
	movl	%eax, (%esp)
	call	__ZN10IAllocatorD2Ev
	movl	$0, %eax
	testl	%eax, %eax
	je	L610
	movl	8(%ebp), %eax
	movl	%eax, (%esp)
	call	__ZN12CStdAllocAdpdlEPv
L610:
	leave
	.cfi_restore 5
	.cfi_def_cfa 4, 4
	ret
	.cfi_endproc
LFE683:
	.section	.text$_ZN12CStdAllocAdpD0Ev,"x"
	.linkonce discard
	.align 2
	.globl	__ZN12CStdAllocAdpD0Ev
	.def	__ZN12CStdAllocAdpD0Ev;	.scl	2;	.type	32;	.endef
__ZN12CStdAllocAdpD0Ev:
LFB684:
	.cfi_startproc
	pushl	%ebp
	.cfi_def_cfa_offset 8
	.cfi_offset 5, -8
	movl	%esp, %ebp
	.cfi_def_cfa_register 5
	subl	$24, %esp
	movl	8(%ebp), %eax
	movl	%eax, (%esp)
	call	__ZN12CStdAllocAdpD1Ev
	movl	8(%ebp), %eax
	movl	%eax, (%esp)
	call	__ZN12CStdAllocAdpdlEPv
	leave
	.cfi_restore 5
	.cfi_def_cfa 4, 4
	ret
	.cfi_endproc
LFE684:
	.globl	__ZN12CStdAllocAdp6m_buffE
	.bss
__ZN12CStdAllocAdp6m_buffE:
	.space 4
	.section .rdata,"dr"
LC125:
	.ascii "CMonoAllocAdp\0"
	.section	.text$_ZNK13CMonoAllocAdp7getNameEv,"x"
	.linkonce discard
	.align 2
	.globl	__ZNK13CMonoAllocAdp7getNameEv
	.def	__ZNK13CMonoAllocAdp7getNameEv;	.scl	2;	.type	32;	.endef
__ZNK13CMonoAllocAdp7getNameEv:
LFB685:
	.cfi_startproc
	pushl	%ebp
	.cfi_def_cfa_offset 8
	.cfi_offset 5, -8
	movl	%esp, %ebp
	.cfi_def_cfa_register 5
	movl	$LC125, %eax
	popl	%ebp
	.cfi_restore 5
	.cfi_def_cfa 4, 4
	ret
	.cfi_endproc
LFE685:
	.section	.text$_ZNK13CMonoAllocAdp8getTotalEv,"x"
	.linkonce discard
	.align 2
	.globl	__ZNK13CMonoAllocAdp8getTotalEv
	.def	__ZNK13CMonoAllocAdp8getTotalEv;	.scl	2;	.type	32;	.endef
__ZNK13CMonoAllocAdp8getTotalEv:
LFB686:
	.cfi_startproc
	pushl	%ebp
	.cfi_def_cfa_offset 8
	.cfi_offset 5, -8
	movl	%esp, %ebp
	.cfi_def_cfa_register 5
	movl	8(%ebp), %eax
	movl	8(%eax), %eax
	popl	%ebp
	.cfi_restore 5
	.cfi_def_cfa 4, 4
	ret
	.cfi_endproc
LFE686:
	.section	.text$_ZNK13CMonoAllocAdp7getUsedEv,"x"
	.linkonce discard
	.align 2
	.globl	__ZNK13CMonoAllocAdp7getUsedEv
	.def	__ZNK13CMonoAllocAdp7getUsedEv;	.scl	2;	.type	32;	.endef
__ZNK13CMonoAllocAdp7getUsedEv:
LFB687:
	.cfi_startproc
	pushl	%ebp
	.cfi_def_cfa_offset 8
	.cfi_offset 5, -8
	movl	%esp, %ebp
	.cfi_def_cfa_register 5
	movl	8(%ebp), %eax
	movzbl	12(%eax), %eax
	testb	%al, %al
	je	L620
	movl	8(%ebp), %eax
	movl	8(%eax), %eax
	jmp	L621
L620:
	movl	$0, %eax
L621:
	popl	%ebp
	.cfi_restore 5
	.cfi_def_cfa 4, 4
	ret
	.cfi_endproc
LFE687:
	.section	.text$_ZNK13CMonoAllocAdp9getRemainEv,"x"
	.linkonce discard
	.align 2
	.globl	__ZNK13CMonoAllocAdp9getRemainEv
	.def	__ZNK13CMonoAllocAdp9getRemainEv;	.scl	2;	.type	32;	.endef
__ZNK13CMonoAllocAdp9getRemainEv:
LFB688:
	.cfi_startproc
	pushl	%ebp
	.cfi_def_cfa_offset 8
	.cfi_offset 5, -8
	movl	%esp, %ebp
	.cfi_def_cfa_register 5
	movl	8(%ebp), %eax
	movzbl	12(%eax), %eax
	testb	%al, %al
	je	L624
	movl	$0, %eax
	jmp	L625
L624:
	movl	8(%ebp), %eax
	movl	8(%eax), %eax
L625:
	popl	%ebp
	.cfi_restore 5
	.cfi_def_cfa 4, 4
	ret
	.cfi_endproc
LFE688:
	.section	.text$_ZN13CMonoAllocAdp5allocEjjPK10ALLOC_INFO,"x"
	.linkonce discard
	.align 2
	.globl	__ZN13CMonoAllocAdp5allocEjjPK10ALLOC_INFO
	.def	__ZN13CMonoAllocAdp5allocEjjPK10ALLOC_INFO;	.scl	2;	.type	32;	.endef
__ZN13CMonoAllocAdp5allocEjjPK10ALLOC_INFO:
LFB692:
	.cfi_startproc
	pushl	%ebp
	.cfi_def_cfa_offset 8
	.cfi_offset 5, -8
	movl	%esp, %ebp
	.cfi_def_cfa_register 5
	movl	8(%ebp), %eax
	movzbl	12(%eax), %eax
	testb	%al, %al
	je	L628
	movl	$0, %eax
	jmp	L629
L628:
	movl	8(%ebp), %eax
	movb	$1, 12(%eax)
	movl	8(%ebp), %eax
	movl	4(%eax), %eax
L629:
	popl	%ebp
	.cfi_restore 5
	.cfi_def_cfa 4, 4
	ret
	.cfi_endproc
LFE692:
	.section	.text$_ZN13CMonoAllocAdp4freeEPv,"x"
	.linkonce discard
	.align 2
	.globl	__ZN13CMonoAllocAdp4freeEPv
	.def	__ZN13CMonoAllocAdp4freeEPv;	.scl	2;	.type	32;	.endef
__ZN13CMonoAllocAdp4freeEPv:
LFB693:
	.cfi_startproc
	pushl	%ebp
	.cfi_def_cfa_offset 8
	.cfi_offset 5, -8
	movl	%esp, %ebp
	.cfi_def_cfa_register 5
	cmpl	$0, 12(%ebp)
	jne	L631
	jmp	L630
L631:
	movl	8(%ebp), %eax
	movzbl	12(%eax), %eax
	xorl	$1, %eax
	testb	%al, %al
	je	L633
	jmp	L630
L633:
	movl	8(%ebp), %eax
	movb	$0, 12(%eax)
L630:
	popl	%ebp
	.cfi_restore 5
	.cfi_def_cfa 4, 4
	ret
	.cfi_endproc
LFE693:
	.section	.text$_ZN13CMonoAllocAdpC2EPvj,"x"
	.linkonce discard
	.align 2
	.globl	__ZN13CMonoAllocAdpC2EPvj
	.def	__ZN13CMonoAllocAdpC2EPvj;	.scl	2;	.type	32;	.endef
__ZN13CMonoAllocAdpC2EPvj:
LFB695:
	.cfi_startproc
	pushl	%ebp
	.cfi_def_cfa_offset 8
	.cfi_offset 5, -8
	movl	%esp, %ebp
	.cfi_def_cfa_register 5
	subl	$4, %esp
	movl	8(%ebp), %eax
	movl	%eax, (%esp)
	call	__ZN10IAllocatorC2Ev
	movl	8(%ebp), %eax
	movl	$__ZTV13CMonoAllocAdp+8, (%eax)
	movl	8(%ebp), %eax
	movl	12(%ebp), %edx
	movl	%edx, 4(%eax)
	movl	8(%ebp), %eax
	movl	16(%ebp), %edx
	movl	%edx, 8(%eax)
	movl	8(%ebp), %eax
	movb	$0, 12(%eax)
	leave
	.cfi_restore 5
	.cfi_def_cfa 4, 4
	ret
	.cfi_endproc
LFE695:
	.section	.text$_ZN13CMonoAllocAdpD2Ev,"x"
	.linkonce discard
	.align 2
	.globl	__ZN13CMonoAllocAdpD2Ev
	.def	__ZN13CMonoAllocAdpD2Ev;	.scl	2;	.type	32;	.endef
__ZN13CMonoAllocAdpD2Ev:
LFB698:
	.cfi_startproc
	pushl	%ebp
	.cfi_def_cfa_offset 8
	.cfi_offset 5, -8
	movl	%esp, %ebp
	.cfi_def_cfa_register 5
	subl	$24, %esp
	movl	8(%ebp), %eax
	movl	$__ZTV13CMonoAllocAdp+8, (%eax)
	movl	8(%ebp), %eax
	movl	%eax, (%esp)
	call	__ZN10IAllocatorD2Ev
	movl	$0, %eax
	testl	%eax, %eax
	je	L635
	movl	8(%ebp), %eax
	movl	%eax, (%esp)
	call	__ZdlPv
L635:
	leave
	.cfi_restore 5
	.cfi_def_cfa 4, 4
	ret
	.cfi_endproc
LFE698:
	.section	.text$_ZN13CMonoAllocAdpD1Ev,"x"
	.linkonce discard
	.align 2
	.globl	__ZN13CMonoAllocAdpD1Ev
	.def	__ZN13CMonoAllocAdpD1Ev;	.scl	2;	.type	32;	.endef
__ZN13CMonoAllocAdpD1Ev:
LFB699:
	.cfi_startproc
	pushl	%ebp
	.cfi_def_cfa_offset 8
	.cfi_offset 5, -8
	movl	%esp, %ebp
	.cfi_def_cfa_register 5
	subl	$24, %esp
	movl	8(%ebp), %eax
	movl	$__ZTV13CMonoAllocAdp+8, (%eax)
	movl	8(%ebp), %eax
	movl	%eax, (%esp)
	call	__ZN10IAllocatorD2Ev
	movl	$0, %eax
	testl	%eax, %eax
	je	L638
	movl	8(%ebp), %eax
	movl	%eax, (%esp)
	call	__ZdlPv
L638:
	leave
	.cfi_restore 5
	.cfi_def_cfa 4, 4
	ret
	.cfi_endproc
LFE699:
	.section	.text$_ZN13CMonoAllocAdpD0Ev,"x"
	.linkonce discard
	.align 2
	.globl	__ZN13CMonoAllocAdpD0Ev
	.def	__ZN13CMonoAllocAdpD0Ev;	.scl	2;	.type	32;	.endef
__ZN13CMonoAllocAdpD0Ev:
LFB700:
	.cfi_startproc
	pushl	%ebp
	.cfi_def_cfa_offset 8
	.cfi_offset 5, -8
	movl	%esp, %ebp
	.cfi_def_cfa_register 5
	subl	$24, %esp
	movl	8(%ebp), %eax
	movl	%eax, (%esp)
	call	__ZN13CMonoAllocAdpD1Ev
	movl	8(%ebp), %eax
	movl	%eax, (%esp)
	call	__ZdlPv
	leave
	.cfi_restore 5
	.cfi_def_cfa 4, 4
	ret
	.cfi_endproc
LFE700:
	.section .rdata,"dr"
LC126:
	.ascii "CIStackAllocAdp\0"
	.section	.text$_ZNK15CIStackAllocAdp7getNameEv,"x"
	.linkonce discard
	.align 2
	.globl	__ZNK15CIStackAllocAdp7getNameEv
	.def	__ZNK15CIStackAllocAdp7getNameEv;	.scl	2;	.type	32;	.endef
__ZNK15CIStackAllocAdp7getNameEv:
LFB703:
	.cfi_startproc
	pushl	%ebp
	.cfi_def_cfa_offset 8
	.cfi_offset 5, -8
	movl	%esp, %ebp
	.cfi_def_cfa_register 5
	movl	$LC126, %eax
	popl	%ebp
	.cfi_restore 5
	.cfi_def_cfa 4, 4
	ret
	.cfi_endproc
LFE703:
	.section	.text$_ZNK15CIStackAllocAdp8getTotalEv,"x"
	.linkonce discard
	.align 2
	.globl	__ZNK15CIStackAllocAdp8getTotalEv
	.def	__ZNK15CIStackAllocAdp8getTotalEv;	.scl	2;	.type	32;	.endef
__ZNK15CIStackAllocAdp8getTotalEv:
LFB704:
	.cfi_startproc
	pushl	%ebp
	.cfi_def_cfa_offset 8
	.cfi_offset 5, -8
	movl	%esp, %ebp
	.cfi_def_cfa_register 5
	subl	$24, %esp
	movl	8(%ebp), %eax
	movl	4(%eax), %eax
	movl	(%eax), %eax
	movl	(%eax), %eax
	movl	8(%ebp), %edx
	movl	4(%edx), %edx
	movl	%edx, (%esp)
	call	*%eax
	leave
	.cfi_restore 5
	.cfi_def_cfa 4, 4
	ret
	.cfi_endproc
LFE704:
	.section	.text$_ZNK15CIStackAllocAdp7getUsedEv,"x"
	.linkonce discard
	.align 2
	.globl	__ZNK15CIStackAllocAdp7getUsedEv
	.def	__ZNK15CIStackAllocAdp7getUsedEv;	.scl	2;	.type	32;	.endef
__ZNK15CIStackAllocAdp7getUsedEv:
LFB705:
	.cfi_startproc
	pushl	%ebp
	.cfi_def_cfa_offset 8
	.cfi_offset 5, -8
	movl	%esp, %ebp
	.cfi_def_cfa_register 5
	subl	$24, %esp
	movl	8(%ebp), %eax
	movl	4(%eax), %eax
	movl	(%eax), %eax
	addl	$4, %eax
	movl	(%eax), %eax
	movl	8(%ebp), %edx
	movl	4(%edx), %edx
	movl	%edx, (%esp)
	call	*%eax
	leave
	.cfi_restore 5
	.cfi_def_cfa 4, 4
	ret
	.cfi_endproc
LFE705:
	.section	.text$_ZNK15CIStackAllocAdp9getRemainEv,"x"
	.linkonce discard
	.align 2
	.globl	__ZNK15CIStackAllocAdp9getRemainEv
	.def	__ZNK15CIStackAllocAdp9getRemainEv;	.scl	2;	.type	32;	.endef
__ZNK15CIStackAllocAdp9getRemainEv:
LFB706:
	.cfi_startproc
	pushl	%ebp
	.cfi_def_cfa_offset 8
	.cfi_offset 5, -8
	movl	%esp, %ebp
	.cfi_def_cfa_register 5
	subl	$24, %esp
	movl	8(%ebp), %eax
	movl	4(%eax), %eax
	movl	(%eax), %eax
	addl	$8, %eax
	movl	(%eax), %eax
	movl	8(%ebp), %edx
	movl	4(%edx), %edx
	movl	%edx, (%esp)
	call	*%eax
	leave
	.cfi_restore 5
	.cfi_def_cfa 4, 4
	ret
	.cfi_endproc
LFE706:
	.section	.text$_ZN15CIStackAllocAdp5allocEjjPK10ALLOC_INFO,"x"
	.linkonce discard
	.align 2
	.globl	__ZN15CIStackAllocAdp5allocEjjPK10ALLOC_INFO
	.def	__ZN15CIStackAllocAdp5allocEjjPK10ALLOC_INFO;	.scl	2;	.type	32;	.endef
__ZN15CIStackAllocAdp5allocEjjPK10ALLOC_INFO:
LFB712:
	.cfi_startproc
	pushl	%ebp
	.cfi_def_cfa_offset 8
	.cfi_offset 5, -8
	movl	%esp, %ebp
	.cfi_def_cfa_register 5
	subl	$24, %esp
	movl	8(%ebp), %eax
	movl	4(%eax), %eax
	movl	(%eax), %eax
	addl	$20, %eax
	movl	(%eax), %eax
	movl	8(%ebp), %edx
	movl	4(%edx), %edx
	movl	16(%ebp), %ecx
	movl	%ecx, 8(%esp)
	movl	12(%ebp), %ecx
	movl	%ecx, 4(%esp)
	movl	%edx, (%esp)
	call	*%eax
	leave
	.cfi_restore 5
	.cfi_def_cfa 4, 4
	ret
	.cfi_endproc
LFE712:
	.section	.text$_ZN15CIStackAllocAdp4freeEPv,"x"
	.linkonce discard
	.align 2
	.globl	__ZN15CIStackAllocAdp4freeEPv
	.def	__ZN15CIStackAllocAdp4freeEPv;	.scl	2;	.type	32;	.endef
__ZN15CIStackAllocAdp4freeEPv:
LFB713:
	.cfi_startproc
	pushl	%ebp
	.cfi_def_cfa_offset 8
	.cfi_offset 5, -8
	movl	%esp, %ebp
	.cfi_def_cfa_register 5
	popl	%ebp
	.cfi_restore 5
	.cfi_def_cfa 4, 4
	ret
	.cfi_endproc
LFE713:
	.section	.text$_ZN15CIStackAllocAdpC2ER15IStackAllocatorNS_13E_AUTO_REWINDE,"x"
	.linkonce discard
	.align 2
	.globl	__ZN15CIStackAllocAdpC2ER15IStackAllocatorNS_13E_AUTO_REWINDE
	.def	__ZN15CIStackAllocAdpC2ER15IStackAllocatorNS_13E_AUTO_REWINDE;	.scl	2;	.type	32;	.endef
__ZN15CIStackAllocAdpC2ER15IStackAllocatorNS_13E_AUTO_REWINDE:
LFB715:
	.cfi_startproc
	.cfi_personality 0,___gxx_personality_v0
	.cfi_lsda 0,LLSDA715
	pushl	%ebp
	.cfi_def_cfa_offset 8
	.cfi_offset 5, -8
	movl	%esp, %ebp
	.cfi_def_cfa_register 5
	pushl	%ebx
	subl	$20, %esp
	.cfi_offset 3, -12
	movl	8(%ebp), %eax
	movl	%eax, (%esp)
	call	__ZN10IAllocatorC2Ev
	movl	8(%ebp), %eax
	movl	$__ZTV15CIStackAllocAdp+8, (%eax)
	movl	8(%ebp), %eax
	movl	12(%ebp), %edx
	movl	%edx, 4(%eax)
	movl	8(%ebp), %eax
	movl	16(%ebp), %edx
	movl	%edx, 8(%eax)
	movl	8(%ebp), %eax
	movl	4(%eax), %eax
	movl	(%eax), %eax
	addl	$16, %eax
	movl	(%eax), %eax
	movl	8(%ebp), %edx
	movl	4(%edx), %edx
	movl	%edx, (%esp)
LEHB123:
	call	*%eax
LEHE123:
	movl	8(%ebp), %edx
	movl	%eax, 12(%edx)
	jmp	L657
L656:
	movl	%eax, %ebx
	movl	8(%ebp), %eax
	movl	%eax, (%esp)
	call	__ZN10IAllocatorD2Ev
	movl	%ebx, %eax
	movl	%eax, (%esp)
LEHB124:
	call	__Unwind_Resume
LEHE124:
L657:
	addl	$20, %esp
	popl	%ebx
	.cfi_restore 3
	popl	%ebp
	.cfi_restore 5
	.cfi_def_cfa 4, 4
	ret
	.cfi_endproc
LFE715:
	.section	.gcc_except_table,"w"
LLSDA715:
	.byte	0xff
	.byte	0xff
	.byte	0x1
	.uleb128 LLSDACSE715-LLSDACSB715
LLSDACSB715:
	.uleb128 LEHB123-LFB715
	.uleb128 LEHE123-LEHB123
	.uleb128 L656-LFB715
	.uleb128 0
	.uleb128 LEHB124-LFB715
	.uleb128 LEHE124-LEHB124
	.uleb128 0
	.uleb128 0
LLSDACSE715:
	.section	.text$_ZN15CIStackAllocAdpC2ER15IStackAllocatorNS_13E_AUTO_REWINDE,"x"
	.linkonce discard
	.section	.text$_ZN15CIStackAllocAdpC1ER15IStackAllocatorNS_13E_AUTO_REWINDE,"x"
	.linkonce discard
	.align 2
	.globl	__ZN15CIStackAllocAdpC1ER15IStackAllocatorNS_13E_AUTO_REWINDE
	.def	__ZN15CIStackAllocAdpC1ER15IStackAllocatorNS_13E_AUTO_REWINDE;	.scl	2;	.type	32;	.endef
__ZN15CIStackAllocAdpC1ER15IStackAllocatorNS_13E_AUTO_REWINDE:
LFB716:
	.cfi_startproc
	.cfi_personality 0,___gxx_personality_v0
	.cfi_lsda 0,LLSDA716
	pushl	%ebp
	.cfi_def_cfa_offset 8
	.cfi_offset 5, -8
	movl	%esp, %ebp
	.cfi_def_cfa_register 5
	pushl	%ebx
	subl	$20, %esp
	.cfi_offset 3, -12
	movl	8(%ebp), %eax
	movl	%eax, (%esp)
	call	__ZN10IAllocatorC2Ev
	movl	8(%ebp), %eax
	movl	$__ZTV15CIStackAllocAdp+8, (%eax)
	movl	8(%ebp), %eax
	movl	12(%ebp), %edx
	movl	%edx, 4(%eax)
	movl	8(%ebp), %eax
	movl	16(%ebp), %edx
	movl	%edx, 8(%eax)
	movl	8(%ebp), %eax
	movl	4(%eax), %eax
	movl	(%eax), %eax
	addl	$16, %eax
	movl	(%eax), %eax
	movl	8(%ebp), %edx
	movl	4(%edx), %edx
	movl	%edx, (%esp)
LEHB125:
	call	*%eax
LEHE125:
	movl	8(%ebp), %edx
	movl	%eax, 12(%edx)
	jmp	L661
L660:
	movl	%eax, %ebx
	movl	8(%ebp), %eax
	movl	%eax, (%esp)
	call	__ZN10IAllocatorD2Ev
	movl	%ebx, %eax
	movl	%eax, (%esp)
LEHB126:
	call	__Unwind_Resume
LEHE126:
L661:
	addl	$20, %esp
	popl	%ebx
	.cfi_restore 3
	popl	%ebp
	.cfi_restore 5
	.cfi_def_cfa 4, 4
	ret
	.cfi_endproc
LFE716:
	.section	.gcc_except_table,"w"
LLSDA716:
	.byte	0xff
	.byte	0xff
	.byte	0x1
	.uleb128 LLSDACSE716-LLSDACSB716
LLSDACSB716:
	.uleb128 LEHB125-LFB716
	.uleb128 LEHE125-LEHB125
	.uleb128 L660-LFB716
	.uleb128 0
	.uleb128 LEHB126-LFB716
	.uleb128 LEHE126-LEHB126
	.uleb128 0
	.uleb128 0
LLSDACSE716:
	.section	.text$_ZN15CIStackAllocAdpC1ER15IStackAllocatorNS_13E_AUTO_REWINDE,"x"
	.linkonce discard
	.section	.text$_ZN15CIStackAllocAdpD2Ev,"x"
	.linkonce discard
	.align 2
	.globl	__ZN15CIStackAllocAdpD2Ev
	.def	__ZN15CIStackAllocAdpD2Ev;	.scl	2;	.type	32;	.endef
__ZN15CIStackAllocAdpD2Ev:
LFB718:
	.cfi_startproc
	.cfi_personality 0,___gxx_personality_v0
	.cfi_lsda 0,LLSDA718
	pushl	%ebp
	.cfi_def_cfa_offset 8
	.cfi_offset 5, -8
	movl	%esp, %ebp
	.cfi_def_cfa_register 5
	subl	$24, %esp
	movl	8(%ebp), %eax
	movl	$__ZTV15CIStackAllocAdp+8, (%eax)
	movl	8(%ebp), %eax
	movl	8(%eax), %eax
	cmpl	$1, %eax
	jne	L663
	movl	8(%ebp), %eax
	movl	4(%eax), %eax
	movl	(%eax), %eax
	addl	$24, %eax
	movl	(%eax), %eax
	movl	8(%ebp), %edx
	movl	12(%edx), %ecx
	movl	8(%ebp), %edx
	movl	4(%edx), %edx
	movl	%ecx, 4(%esp)
	movl	%edx, (%esp)
	call	*%eax
L663:
	movl	8(%ebp), %eax
	movl	%eax, (%esp)
	call	__ZN10IAllocatorD2Ev
	movl	$0, %eax
	testl	%eax, %eax
	je	L662
	movl	8(%ebp), %eax
	movl	%eax, (%esp)
	call	__ZdlPv
L662:
	leave
	.cfi_restore 5
	.cfi_def_cfa 4, 4
	ret
	.cfi_endproc
LFE718:
	.section	.gcc_except_table,"w"
LLSDA718:
	.byte	0xff
	.byte	0xff
	.byte	0x1
	.uleb128 LLSDACSE718-LLSDACSB718
LLSDACSB718:
LLSDACSE718:
	.section	.text$_ZN15CIStackAllocAdpD2Ev,"x"
	.linkonce discard
	.section	.text$_ZN15CIStackAllocAdpD1Ev,"x"
	.linkonce discard
	.align 2
	.globl	__ZN15CIStackAllocAdpD1Ev
	.def	__ZN15CIStackAllocAdpD1Ev;	.scl	2;	.type	32;	.endef
__ZN15CIStackAllocAdpD1Ev:
LFB719:
	.cfi_startproc
	.cfi_personality 0,___gxx_personality_v0
	.cfi_lsda 0,LLSDA719
	pushl	%ebp
	.cfi_def_cfa_offset 8
	.cfi_offset 5, -8
	movl	%esp, %ebp
	.cfi_def_cfa_register 5
	subl	$24, %esp
	movl	8(%ebp), %eax
	movl	$__ZTV15CIStackAllocAdp+8, (%eax)
	movl	8(%ebp), %eax
	movl	8(%eax), %eax
	cmpl	$1, %eax
	jne	L667
	movl	8(%ebp), %eax
	movl	4(%eax), %eax
	movl	(%eax), %eax
	addl	$24, %eax
	movl	(%eax), %eax
	movl	8(%ebp), %edx
	movl	12(%edx), %ecx
	movl	8(%ebp), %edx
	movl	4(%edx), %edx
	movl	%ecx, 4(%esp)
	movl	%edx, (%esp)
	call	*%eax
L667:
	movl	8(%ebp), %eax
	movl	%eax, (%esp)
	call	__ZN10IAllocatorD2Ev
	movl	$0, %eax
	testl	%eax, %eax
	je	L666
	movl	8(%ebp), %eax
	movl	%eax, (%esp)
	call	__ZdlPv
L666:
	leave
	.cfi_restore 5
	.cfi_def_cfa 4, 4
	ret
	.cfi_endproc
LFE719:
	.section	.gcc_except_table,"w"
LLSDA719:
	.byte	0xff
	.byte	0xff
	.byte	0x1
	.uleb128 LLSDACSE719-LLSDACSB719
LLSDACSB719:
LLSDACSE719:
	.section	.text$_ZN15CIStackAllocAdpD1Ev,"x"
	.linkonce discard
	.section	.text$_ZN15CIStackAllocAdpD0Ev,"x"
	.linkonce discard
	.align 2
	.globl	__ZN15CIStackAllocAdpD0Ev
	.def	__ZN15CIStackAllocAdpD0Ev;	.scl	2;	.type	32;	.endef
__ZN15CIStackAllocAdpD0Ev:
LFB720:
	.cfi_startproc
	pushl	%ebp
	.cfi_def_cfa_offset 8
	.cfi_offset 5, -8
	movl	%esp, %ebp
	.cfi_def_cfa_register 5
	subl	$24, %esp
	movl	8(%ebp), %eax
	movl	%eax, (%esp)
	call	__ZN15CIStackAllocAdpD1Ev
	movl	8(%ebp), %eax
	movl	%eax, (%esp)
	call	__ZdlPv
	leave
	.cfi_restore 5
	.cfi_def_cfa 4, 4
	ret
	.cfi_endproc
LFE720:
	.section .rdata,"dr"
LC127:
	.ascii "CStackAllocAdp\0"
	.section	.text$_ZNK14CStackAllocAdp7getNameEv,"x"
	.linkonce discard
	.align 2
	.globl	__ZNK14CStackAllocAdp7getNameEv
	.def	__ZNK14CStackAllocAdp7getNameEv;	.scl	2;	.type	32;	.endef
__ZNK14CStackAllocAdp7getNameEv:
LFB721:
	.cfi_startproc
	pushl	%ebp
	.cfi_def_cfa_offset 8
	.cfi_offset 5, -8
	movl	%esp, %ebp
	.cfi_def_cfa_register 5
	movl	$LC127, %eax
	popl	%ebp
	.cfi_restore 5
	.cfi_def_cfa 4, 4
	ret
	.cfi_endproc
LFE721:
	.section	.text$_ZN14CStackAllocAdp12getAllocatorEv,"x"
	.linkonce discard
	.align 2
	.globl	__ZN14CStackAllocAdp12getAllocatorEv
	.def	__ZN14CStackAllocAdp12getAllocatorEv;	.scl	2;	.type	32;	.endef
__ZN14CStackAllocAdp12getAllocatorEv:
LFB722:
	.cfi_startproc
	pushl	%ebp
	.cfi_def_cfa_offset 8
	.cfi_offset 5, -8
	movl	%esp, %ebp
	.cfi_def_cfa_register 5
	movl	8(%ebp), %eax
	movl	4(%eax), %eax
	popl	%ebp
	.cfi_restore 5
	.cfi_def_cfa 4, 4
	ret
	.cfi_endproc
LFE722:
	.section	.text$_ZN14CStackAllocAdp5allocEjjPK10ALLOC_INFO,"x"
	.linkonce discard
	.align 2
	.globl	__ZN14CStackAllocAdp5allocEjjPK10ALLOC_INFO
	.def	__ZN14CStackAllocAdp5allocEjjPK10ALLOC_INFO;	.scl	2;	.type	32;	.endef
__ZN14CStackAllocAdp5allocEjjPK10ALLOC_INFO:
LFB724:
	.cfi_startproc
	pushl	%ebp
	.cfi_def_cfa_offset 8
	.cfi_offset 5, -8
	movl	%esp, %ebp
	.cfi_def_cfa_register 5
	subl	$40, %esp
	movl	8(%ebp), %eax
	movl	%eax, (%esp)
	call	__ZN14CStackAllocAdp12getAllocatorEv
	movl	%eax, -12(%ebp)
	movl	16(%ebp), %eax
	movl	%eax, 8(%esp)
	movl	12(%ebp), %eax
	movl	%eax, 4(%esp)
	movl	-12(%ebp), %eax
	movl	%eax, (%esp)
	call	__ZN15CStackAllocator6allocNEjj
	leave
	.cfi_restore 5
	.cfi_def_cfa 4, 4
	ret
	.cfi_endproc
LFE724:
	.section	.text$_ZN14CStackAllocAdp4freeEPv,"x"
	.linkonce discard
	.align 2
	.globl	__ZN14CStackAllocAdp4freeEPv
	.def	__ZN14CStackAllocAdp4freeEPv;	.scl	2;	.type	32;	.endef
__ZN14CStackAllocAdp4freeEPv:
LFB725:
	.cfi_startproc
	pushl	%ebp
	.cfi_def_cfa_offset 8
	.cfi_offset 5, -8
	movl	%esp, %ebp
	.cfi_def_cfa_register 5
	popl	%ebp
	.cfi_restore 5
	.cfi_def_cfa 4, 4
	ret
	.cfi_endproc
LFE725:
	.section	.text$_ZN14CStackAllocAdpC1ER15CStackAllocatorN15CIStackAllocAdp13E_AUTO_REWINDE,"x"
	.linkonce discard
	.align 2
	.globl	__ZN14CStackAllocAdpC1ER15CStackAllocatorN15CIStackAllocAdp13E_AUTO_REWINDE
	.def	__ZN14CStackAllocAdpC1ER15CStackAllocatorN15CIStackAllocAdp13E_AUTO_REWINDE;	.scl	2;	.type	32;	.endef
__ZN14CStackAllocAdpC1ER15CStackAllocatorN15CIStackAllocAdp13E_AUTO_REWINDE:
LFB728:
	.cfi_startproc
	pushl	%ebp
	.cfi_def_cfa_offset 8
	.cfi_offset 5, -8
	movl	%esp, %ebp
	.cfi_def_cfa_register 5
	subl	$24, %esp
	movl	12(%ebp), %edx
	movl	8(%ebp), %eax
	movl	16(%ebp), %ecx
	movl	%ecx, 8(%esp)
	movl	%edx, 4(%esp)
	movl	%eax, (%esp)
	call	__ZN15CIStackAllocAdpC2ER15IStackAllocatorNS_13E_AUTO_REWINDE
	movl	8(%ebp), %eax
	movl	$__ZTV14CStackAllocAdp+8, (%eax)
	leave
	.cfi_restore 5
	.cfi_def_cfa 4, 4
	ret
	.cfi_endproc
LFE728:
	.section	.text$_ZN14CStackAllocAdpD1Ev,"x"
	.linkonce discard
	.align 2
	.globl	__ZN14CStackAllocAdpD1Ev
	.def	__ZN14CStackAllocAdpD1Ev;	.scl	2;	.type	32;	.endef
__ZN14CStackAllocAdpD1Ev:
LFB731:
	.cfi_startproc
	pushl	%ebp
	.cfi_def_cfa_offset 8
	.cfi_offset 5, -8
	movl	%esp, %ebp
	.cfi_def_cfa_register 5
	subl	$24, %esp
	movl	8(%ebp), %eax
	movl	$__ZTV14CStackAllocAdp+8, (%eax)
	movl	8(%ebp), %eax
	movl	%eax, (%esp)
	call	__ZN15CIStackAllocAdpD2Ev
	movl	$0, %eax
	testl	%eax, %eax
	je	L680
	movl	8(%ebp), %eax
	movl	%eax, (%esp)
	call	__ZdlPv
L680:
	leave
	.cfi_restore 5
	.cfi_def_cfa 4, 4
	ret
	.cfi_endproc
LFE731:
	.section	.text$_ZN14CStackAllocAdpD0Ev,"x"
	.linkonce discard
	.align 2
	.globl	__ZN14CStackAllocAdpD0Ev
	.def	__ZN14CStackAllocAdpD0Ev;	.scl	2;	.type	32;	.endef
__ZN14CStackAllocAdpD0Ev:
LFB732:
	.cfi_startproc
	pushl	%ebp
	.cfi_def_cfa_offset 8
	.cfi_offset 5, -8
	movl	%esp, %ebp
	.cfi_def_cfa_register 5
	subl	$24, %esp
	movl	8(%ebp), %eax
	movl	%eax, (%esp)
	call	__ZN14CStackAllocAdpD1Ev
	movl	8(%ebp), %eax
	movl	%eax, (%esp)
	call	__ZdlPv
	leave
	.cfi_restore 5
	.cfi_def_cfa 4, 4
	ret
	.cfi_endproc
LFE732:
	.section .rdata,"dr"
LC128:
	.ascii "CDualStackAllocAdp\0"
	.section	.text$_ZNK18CDualStackAllocAdp7getNameEv,"x"
	.linkonce discard
	.align 2
	.globl	__ZNK18CDualStackAllocAdp7getNameEv
	.def	__ZNK18CDualStackAllocAdp7getNameEv;	.scl	2;	.type	32;	.endef
__ZNK18CDualStackAllocAdp7getNameEv:
LFB733:
	.cfi_startproc
	pushl	%ebp
	.cfi_def_cfa_offset 8
	.cfi_offset 5, -8
	movl	%esp, %ebp
	.cfi_def_cfa_register 5
	movl	$LC128, %eax
	popl	%ebp
	.cfi_restore 5
	.cfi_def_cfa 4, 4
	ret
	.cfi_endproc
LFE733:
	.section	.text$_ZN18CDualStackAllocAdp12getAllocatorEv,"x"
	.linkonce discard
	.align 2
	.globl	__ZN18CDualStackAllocAdp12getAllocatorEv
	.def	__ZN18CDualStackAllocAdp12getAllocatorEv;	.scl	2;	.type	32;	.endef
__ZN18CDualStackAllocAdp12getAllocatorEv:
LFB734:
	.cfi_startproc
	pushl	%ebp
	.cfi_def_cfa_offset 8
	.cfi_offset 5, -8
	movl	%esp, %ebp
	.cfi_def_cfa_register 5
	movl	8(%ebp), %eax
	movl	4(%eax), %eax
	popl	%ebp
	.cfi_restore 5
	.cfi_def_cfa 4, 4
	ret
	.cfi_endproc
LFE734:
	.section	.text$_ZN18CDualStackAllocAdp5allocEjjPK10ALLOC_INFO,"x"
	.linkonce discard
	.align 2
	.globl	__ZN18CDualStackAllocAdp5allocEjjPK10ALLOC_INFO
	.def	__ZN18CDualStackAllocAdp5allocEjjPK10ALLOC_INFO;	.scl	2;	.type	32;	.endef
__ZN18CDualStackAllocAdp5allocEjjPK10ALLOC_INFO:
LFB740:
	.cfi_startproc
	pushl	%ebp
	.cfi_def_cfa_offset 8
	.cfi_offset 5, -8
	movl	%esp, %ebp
	.cfi_def_cfa_register 5
	subl	$40, %esp
	movl	8(%ebp), %eax
	movl	%eax, (%esp)
	call	__ZN18CDualStackAllocAdp12getAllocatorEv
	movl	%eax, -12(%ebp)
	movl	8(%ebp), %eax
	movl	16(%eax), %eax
	movl	16(%ebp), %edx
	movl	%edx, 12(%esp)
	movl	12(%ebp), %edx
	movl	%edx, 8(%esp)
	movl	%eax, 4(%esp)
	movl	-12(%ebp), %eax
	movl	%eax, (%esp)
	call	__ZN19CDualStackAllocator5allocEN15IStackAllocator9E_ORDEREDEjj
	leave
	.cfi_restore 5
	.cfi_def_cfa 4, 4
	ret
	.cfi_endproc
LFE740:
	.section	.text$_ZN18CDualStackAllocAdp4freeEPv,"x"
	.linkonce discard
	.align 2
	.globl	__ZN18CDualStackAllocAdp4freeEPv
	.def	__ZN18CDualStackAllocAdp4freeEPv;	.scl	2;	.type	32;	.endef
__ZN18CDualStackAllocAdp4freeEPv:
LFB741:
	.cfi_startproc
	pushl	%ebp
	.cfi_def_cfa_offset 8
	.cfi_offset 5, -8
	movl	%esp, %ebp
	.cfi_def_cfa_register 5
	popl	%ebp
	.cfi_restore 5
	.cfi_def_cfa 4, 4
	ret
	.cfi_endproc
LFE741:
	.section	.text$_ZN18CDualStackAllocAdpC1ER19CDualStackAllocatorN15IStackAllocator9E_ORDEREDEN15CIStackAllocAdp13E_AUTO_REWINDE,"x"
	.linkonce discard
	.align 2
	.globl	__ZN18CDualStackAllocAdpC1ER19CDualStackAllocatorN15IStackAllocator9E_ORDEREDEN15CIStackAllocAdp13E_AUTO_REWINDE
	.def	__ZN18CDualStackAllocAdpC1ER19CDualStackAllocatorN15IStackAllocator9E_ORDEREDEN15CIStackAllocAdp13E_AUTO_REWINDE;	.scl	2;	.type	32;	.endef
__ZN18CDualStackAllocAdpC1ER19CDualStackAllocatorN15IStackAllocator9E_ORDEREDEN15CIStackAllocAdp13E_AUTO_REWINDE:
LFB744:
	.cfi_startproc
	pushl	%ebp
	.cfi_def_cfa_offset 8
	.cfi_offset 5, -8
	movl	%esp, %ebp
	.cfi_def_cfa_register 5
	subl	$24, %esp
	movl	12(%ebp), %edx
	movl	8(%ebp), %eax
	movl	20(%ebp), %ecx
	movl	%ecx, 8(%esp)
	movl	%edx, 4(%esp)
	movl	%eax, (%esp)
	call	__ZN15CIStackAllocAdpC2ER15IStackAllocatorNS_13E_AUTO_REWINDE
	movl	8(%ebp), %eax
	movl	$__ZTV18CDualStackAllocAdp+8, (%eax)
	movl	8(%ebp), %eax
	movl	16(%ebp), %edx
	movl	%edx, 16(%eax)
	movl	12(%ebp), %eax
	movl	%eax, (%esp)
	call	__ZNK19CDualStackAllocator10getMarkerNEv
	movl	8(%ebp), %edx
	movl	%eax, 12(%edx)
	movl	12(%ebp), %eax
	movl	%eax, (%esp)
	call	__ZNK19CDualStackAllocator10getMarkerREv
	movl	8(%ebp), %edx
	movl	%eax, 20(%edx)
	leave
	.cfi_restore 5
	.cfi_def_cfa 4, 4
	ret
	.cfi_endproc
LFE744:
	.section	.text$_ZN18CDualStackAllocAdpD1Ev,"x"
	.linkonce discard
	.align 2
	.globl	__ZN18CDualStackAllocAdpD1Ev
	.def	__ZN18CDualStackAllocAdpD1Ev;	.scl	2;	.type	32;	.endef
__ZN18CDualStackAllocAdpD1Ev:
LFB747:
	.cfi_startproc
	pushl	%ebp
	.cfi_def_cfa_offset 8
	.cfi_offset 5, -8
	movl	%esp, %ebp
	.cfi_def_cfa_register 5
	subl	$40, %esp
	movl	8(%ebp), %eax
	movl	$__ZTV18CDualStackAllocAdp+8, (%eax)
	movl	8(%ebp), %eax
	movl	8(%eax), %eax
	cmpl	$2, %eax
	jne	L694
	movl	8(%ebp), %eax
	movl	%eax, (%esp)
	call	__ZN18CDualStackAllocAdp12getAllocatorEv
	movl	%eax, -12(%ebp)
	movl	8(%ebp), %eax
	movl	12(%eax), %eax
	movl	%eax, 4(%esp)
	movl	-12(%ebp), %eax
	movl	%eax, (%esp)
	call	__ZN19CDualStackAllocator5backNEj
	movl	8(%ebp), %eax
	movl	20(%eax), %eax
	movl	%eax, 4(%esp)
	movl	-12(%ebp), %eax
	movl	%eax, (%esp)
	call	__ZN19CDualStackAllocator5backREj
	jmp	L695
L694:
	movl	8(%ebp), %eax
	movl	8(%eax), %eax
	cmpl	$1, %eax
	jne	L695
	movl	8(%ebp), %eax
	movl	%eax, (%esp)
	call	__ZN18CDualStackAllocAdp12getAllocatorEv
	movl	%eax, -16(%ebp)
	movl	8(%ebp), %eax
	movl	16(%eax), %eax
	cmpl	$1, %eax
	jne	L696
	movl	8(%ebp), %eax
	movl	12(%eax), %eax
	movl	%eax, 4(%esp)
	movl	-16(%ebp), %eax
	movl	%eax, (%esp)
	call	__ZN19CDualStackAllocator5backNEj
	jmp	L697
L696:
	movl	8(%ebp), %eax
	movl	16(%eax), %eax
	cmpl	$-1, %eax
	jne	L698
	movl	8(%ebp), %eax
	movl	20(%eax), %eax
	movl	%eax, 4(%esp)
	movl	-16(%ebp), %eax
	movl	%eax, (%esp)
	call	__ZN19CDualStackAllocator5backREj
	jmp	L697
L698:
	movl	-16(%ebp), %eax
	movl	%eax, (%esp)
	call	__ZNK19CDualStackAllocator17getDefaultOrderedEv
	cmpl	$-1, %eax
	sete	%al
	testb	%al, %al
	je	L699
	movl	8(%ebp), %eax
	movl	20(%eax), %eax
	movl	%eax, 4(%esp)
	movl	-16(%ebp), %eax
	movl	%eax, (%esp)
	call	__ZN19CDualStackAllocator5backREj
	jmp	L697
L699:
	movl	8(%ebp), %eax
	movl	12(%eax), %eax
	movl	%eax, 4(%esp)
	movl	-16(%ebp), %eax
	movl	%eax, (%esp)
	call	__ZN19CDualStackAllocator5backNEj
	jmp	L695
L697:
L695:
	movl	8(%ebp), %eax
	movl	$0, 8(%eax)
	movl	8(%ebp), %eax
	movl	%eax, (%esp)
	call	__ZN15CIStackAllocAdpD2Ev
	movl	$0, %eax
	testl	%eax, %eax
	je	L693
	movl	8(%ebp), %eax
	movl	%eax, (%esp)
	call	__ZdlPv
L693:
	leave
	.cfi_restore 5
	.cfi_def_cfa 4, 4
	ret
	.cfi_endproc
LFE747:
	.section	.text$_ZN18CDualStackAllocAdpD0Ev,"x"
	.linkonce discard
	.align 2
	.globl	__ZN18CDualStackAllocAdpD0Ev
	.def	__ZN18CDualStackAllocAdpD0Ev;	.scl	2;	.type	32;	.endef
__ZN18CDualStackAllocAdpD0Ev:
LFB748:
	.cfi_startproc
	pushl	%ebp
	.cfi_def_cfa_offset 8
	.cfi_offset 5, -8
	movl	%esp, %ebp
	.cfi_def_cfa_register 5
	subl	$24, %esp
	movl	8(%ebp), %eax
	movl	%eax, (%esp)
	call	__ZN18CDualStackAllocAdpD1Ev
	movl	8(%ebp), %eax
	movl	%eax, (%esp)
	call	__ZdlPv
	leave
	.cfi_restore 5
	.cfi_def_cfa 4, 4
	ret
	.cfi_endproc
LFE748:
	.section .rdata,"dr"
LC129:
	.ascii "CPoolAllocAdp\0"
	.section	.text$_ZNK13CPoolAllocAdp7getNameEv,"x"
	.linkonce discard
	.align 2
	.globl	__ZNK13CPoolAllocAdp7getNameEv
	.def	__ZNK13CPoolAllocAdp7getNameEv;	.scl	2;	.type	32;	.endef
__ZNK13CPoolAllocAdp7getNameEv:
LFB749:
	.cfi_startproc
	pushl	%ebp
	.cfi_def_cfa_offset 8
	.cfi_offset 5, -8
	movl	%esp, %ebp
	.cfi_def_cfa_register 5
	movl	$LC129, %eax
	popl	%ebp
	.cfi_restore 5
	.cfi_def_cfa 4, 4
	ret
	.cfi_endproc
LFE749:
	.section	.text$_ZNK13CPoolAllocAdp8getTotalEv,"x"
	.linkonce discard
	.align 2
	.globl	__ZNK13CPoolAllocAdp8getTotalEv
	.def	__ZNK13CPoolAllocAdp8getTotalEv;	.scl	2;	.type	32;	.endef
__ZNK13CPoolAllocAdp8getTotalEv:
LFB750:
	.cfi_startproc
	pushl	%ebp
	.cfi_def_cfa_offset 8
	.cfi_offset 5, -8
	movl	%esp, %ebp
	.cfi_def_cfa_register 5
	pushl	%ebx
	subl	$4, %esp
	.cfi_offset 3, -12
	movl	8(%ebp), %eax
	movl	4(%eax), %eax
	movl	%eax, (%esp)
	call	__ZNK14CPoolAllocator12getBlocksNumEv
	movl	%eax, %ebx
	movl	8(%ebp), %eax
	movl	4(%eax), %eax
	movl	%eax, (%esp)
	call	__ZNK14CPoolAllocator12getBlockSizeEv
	imull	%ebx, %eax
	addl	$4, %esp
	popl	%ebx
	.cfi_restore 3
	popl	%ebp
	.cfi_restore 5
	.cfi_def_cfa 4, 4
	ret
	.cfi_endproc
LFE750:
	.section	.text$_ZNK13CPoolAllocAdp7getUsedEv,"x"
	.linkonce discard
	.align 2
	.globl	__ZNK13CPoolAllocAdp7getUsedEv
	.def	__ZNK13CPoolAllocAdp7getUsedEv;	.scl	2;	.type	32;	.endef
__ZNK13CPoolAllocAdp7getUsedEv:
LFB751:
	.cfi_startproc
	pushl	%ebp
	.cfi_def_cfa_offset 8
	.cfi_offset 5, -8
	movl	%esp, %ebp
	.cfi_def_cfa_register 5
	pushl	%ebx
	subl	$20, %esp
	.cfi_offset 3, -12
	movl	8(%ebp), %eax
	movl	4(%eax), %eax
	movl	%eax, (%esp)
	call	__ZNK14CPoolAllocator7getUsedEv
	movl	%eax, %ebx
	movl	8(%ebp), %eax
	movl	4(%eax), %eax
	movl	%eax, (%esp)
	call	__ZNK14CPoolAllocator12getBlockSizeEv
	imull	%ebx, %eax
	addl	$20, %esp
	popl	%ebx
	.cfi_restore 3
	popl	%ebp
	.cfi_restore 5
	.cfi_def_cfa 4, 4
	ret
	.cfi_endproc
LFE751:
	.section	.text$_ZNK13CPoolAllocAdp9getRemainEv,"x"
	.linkonce discard
	.align 2
	.globl	__ZNK13CPoolAllocAdp9getRemainEv
	.def	__ZNK13CPoolAllocAdp9getRemainEv;	.scl	2;	.type	32;	.endef
__ZNK13CPoolAllocAdp9getRemainEv:
LFB752:
	.cfi_startproc
	pushl	%ebp
	.cfi_def_cfa_offset 8
	.cfi_offset 5, -8
	movl	%esp, %ebp
	.cfi_def_cfa_register 5
	pushl	%ebx
	subl	$20, %esp
	.cfi_offset 3, -12
	movl	8(%ebp), %eax
	movl	4(%eax), %eax
	movl	%eax, (%esp)
	call	__ZNK14CPoolAllocator9getRemainEv
	movl	%eax, %ebx
	movl	8(%ebp), %eax
	movl	4(%eax), %eax
	movl	%eax, (%esp)
	call	__ZNK14CPoolAllocator12getBlockSizeEv
	imull	%ebx, %eax
	addl	$20, %esp
	popl	%ebx
	.cfi_restore 3
	popl	%ebp
	.cfi_restore 5
	.cfi_def_cfa 4, 4
	ret
	.cfi_endproc
LFE752:
	.section	.text$_ZN13CPoolAllocAdp5allocEjjPK10ALLOC_INFO,"x"
	.linkonce discard
	.align 2
	.globl	__ZN13CPoolAllocAdp5allocEjjPK10ALLOC_INFO
	.def	__ZN13CPoolAllocAdp5allocEjjPK10ALLOC_INFO;	.scl	2;	.type	32;	.endef
__ZN13CPoolAllocAdp5allocEjjPK10ALLOC_INFO:
LFB754:
	.cfi_startproc
	pushl	%ebp
	.cfi_def_cfa_offset 8
	.cfi_offset 5, -8
	movl	%esp, %ebp
	.cfi_def_cfa_register 5
	subl	$24, %esp
	movl	8(%ebp), %eax
	movl	4(%eax), %eax
	movl	12(%ebp), %edx
	movl	%edx, 4(%esp)
	movl	%eax, (%esp)
	call	__ZN14CPoolAllocator5allocEj
	leave
	.cfi_restore 5
	.cfi_def_cfa 4, 4
	ret
	.cfi_endproc
LFE754:
	.section	.text$_ZN13CPoolAllocAdp4freeEPv,"x"
	.linkonce discard
	.align 2
	.globl	__ZN13CPoolAllocAdp4freeEPv
	.def	__ZN13CPoolAllocAdp4freeEPv;	.scl	2;	.type	32;	.endef
__ZN13CPoolAllocAdp4freeEPv:
LFB755:
	.cfi_startproc
	pushl	%ebp
	.cfi_def_cfa_offset 8
	.cfi_offset 5, -8
	movl	%esp, %ebp
	.cfi_def_cfa_register 5
	subl	$24, %esp
	movl	8(%ebp), %eax
	movl	4(%eax), %eax
	movl	12(%ebp), %edx
	movl	%edx, 4(%esp)
	movl	%eax, (%esp)
	call	__ZN14CPoolAllocator4freeEPv
	leave
	.cfi_restore 5
	.cfi_def_cfa 4, 4
	ret
	.cfi_endproc
LFE755:
	.section	.text$_ZN13CPoolAllocAdpC1ER14CPoolAllocator,"x"
	.linkonce discard
	.align 2
	.globl	__ZN13CPoolAllocAdpC1ER14CPoolAllocator
	.def	__ZN13CPoolAllocAdpC1ER14CPoolAllocator;	.scl	2;	.type	32;	.endef
__ZN13CPoolAllocAdpC1ER14CPoolAllocator:
LFB758:
	.cfi_startproc
	pushl	%ebp
	.cfi_def_cfa_offset 8
	.cfi_offset 5, -8
	movl	%esp, %ebp
	.cfi_def_cfa_register 5
	subl	$4, %esp
	movl	8(%ebp), %eax
	movl	%eax, (%esp)
	call	__ZN10IAllocatorC2Ev
	movl	8(%ebp), %eax
	movl	$__ZTV13CPoolAllocAdp+8, (%eax)
	movl	8(%ebp), %eax
	movl	12(%ebp), %edx
	movl	%edx, 4(%eax)
	leave
	.cfi_restore 5
	.cfi_def_cfa 4, 4
	ret
	.cfi_endproc
LFE758:
	.section	.text$_ZN13CPoolAllocAdpD1Ev,"x"
	.linkonce discard
	.align 2
	.globl	__ZN13CPoolAllocAdpD1Ev
	.def	__ZN13CPoolAllocAdpD1Ev;	.scl	2;	.type	32;	.endef
__ZN13CPoolAllocAdpD1Ev:
LFB761:
	.cfi_startproc
	pushl	%ebp
	.cfi_def_cfa_offset 8
	.cfi_offset 5, -8
	movl	%esp, %ebp
	.cfi_def_cfa_register 5
	subl	$24, %esp
	movl	8(%ebp), %eax
	movl	$__ZTV13CPoolAllocAdp+8, (%eax)
	movl	8(%ebp), %eax
	movl	%eax, (%esp)
	call	__ZN10IAllocatorD2Ev
	movl	$0, %eax
	testl	%eax, %eax
	je	L717
	movl	8(%ebp), %eax
	movl	%eax, (%esp)
	call	__ZdlPv
L717:
	leave
	.cfi_restore 5
	.cfi_def_cfa 4, 4
	ret
	.cfi_endproc
LFE761:
	.section	.text$_ZN13CPoolAllocAdpD0Ev,"x"
	.linkonce discard
	.align 2
	.globl	__ZN13CPoolAllocAdpD0Ev
	.def	__ZN13CPoolAllocAdpD0Ev;	.scl	2;	.type	32;	.endef
__ZN13CPoolAllocAdpD0Ev:
LFB762:
	.cfi_startproc
	pushl	%ebp
	.cfi_def_cfa_offset 8
	.cfi_offset 5, -8
	movl	%esp, %ebp
	.cfi_def_cfa_register 5
	subl	$24, %esp
	movl	8(%ebp), %eax
	movl	%eax, (%esp)
	call	__ZN13CPoolAllocAdpD1Ev
	movl	8(%ebp), %eax
	movl	%eax, (%esp)
	call	__ZdlPv
	leave
	.cfi_restore 5
	.cfi_def_cfa 4, 4
	ret
	.cfi_endproc
LFE762:
	.section .rdata,"dr"
	.align 4
LC130:
	.ascii "placement new(size=%d, i_allocator=\"%s\":%d/%d/%d)\12\0"
LC131:
	.ascii "  p=0x%p\12\0"
	.text
	.globl	__ZnwjR10IAllocator
	.def	__ZnwjR10IAllocator;	.scl	2;	.type	32;	.endef
__ZnwjR10IAllocator:
LFB763:
	.cfi_startproc
	.cfi_personality 0,___gxx_personality_v0
	.cfi_lsda 0,LLSDA763
	pushl	%ebp
	.cfi_def_cfa_offset 8
	.cfi_offset 5, -8
	movl	%esp, %ebp
	.cfi_def_cfa_register 5
	pushl	%edi
	pushl	%esi
	pushl	%ebx
	subl	$60, %esp
	.cfi_offset 7, -12
	.cfi_offset 6, -16
	.cfi_offset 3, -20
	movl	12(%ebp), %eax
	movl	(%eax), %eax
	addl	$12, %eax
	movl	(%eax), %eax
	movl	12(%ebp), %edx
	movl	%edx, (%esp)
LEHB127:
	call	*%eax
	movl	%eax, %edi
	movl	12(%ebp), %eax
	movl	(%eax), %eax
	addl	$8, %eax
	movl	(%eax), %eax
	movl	12(%ebp), %edx
	movl	%edx, (%esp)
	call	*%eax
	movl	%eax, %esi
	movl	12(%ebp), %eax
	movl	(%eax), %eax
	addl	$4, %eax
	movl	(%eax), %eax
	movl	12(%ebp), %edx
	movl	%edx, (%esp)
	call	*%eax
	movl	%eax, %ebx
	movl	12(%ebp), %eax
	movl	(%eax), %eax
	movl	(%eax), %eax
	movl	12(%ebp), %edx
	movl	%edx, (%esp)
	call	*%eax
	movl	%edi, 20(%esp)
	movl	%esi, 16(%esp)
	movl	%ebx, 12(%esp)
	movl	%eax, 8(%esp)
	movl	8(%ebp), %eax
	movl	%eax, 4(%esp)
	movl	$LC130, (%esp)
	call	_printf
	movl	12(%ebp), %eax
	movl	(%eax), %eax
	addl	$16, %eax
	movl	(%eax), %eax
	movl	$0, 12(%esp)
	movl	$4, 8(%esp)
	movl	8(%ebp), %edx
	movl	%edx, 4(%esp)
	movl	12(%ebp), %edx
	movl	%edx, (%esp)
	call	*%eax
	movl	%eax, -28(%ebp)
	movl	-28(%ebp), %eax
	movl	%eax, 4(%esp)
	movl	$LC131, (%esp)
	call	_printf
LEHE127:
	movl	-28(%ebp), %eax
	jmp	L727
L726:
	cmpl	$-1, %edx
	je	L725
	movl	%eax, (%esp)
LEHB128:
	call	__Unwind_Resume
L725:
	movl	%eax, (%esp)
	call	___cxa_call_unexpected
LEHE128:
L727:
	addl	$60, %esp
	popl	%ebx
	.cfi_restore 3
	popl	%esi
	.cfi_restore 6
	popl	%edi
	.cfi_restore 7
	popl	%ebp
	.cfi_restore 5
	.cfi_def_cfa 4, 4
	ret
	.cfi_endproc
LFE763:
	.section	.gcc_except_table,"w"
	.align 4
LLSDA763:
	.byte	0xff
	.byte	0
	.uleb128 LLSDATT763-LLSDATTD763
LLSDATTD763:
	.byte	0x1
	.uleb128 LLSDACSE763-LLSDACSB763
LLSDACSB763:
	.uleb128 LEHB127-LFB763
	.uleb128 LEHE127-LEHB127
	.uleb128 L726-LFB763
	.uleb128 0x1
	.uleb128 LEHB128-LFB763
	.uleb128 LEHE128-LEHB128
	.uleb128 0
	.uleb128 0
LLSDACSE763:
	.byte	0x7f
	.byte	0
	.align 4
LLSDATT763:
	.byte	0
	.text
	.section .rdata,"dr"
	.align 4
LC132:
	.ascii "placement new[](size=%d, i_allocator=\"%s\":%d/%d/%d)\12\0"
	.text
	.globl	__ZnajR10IAllocator
	.def	__ZnajR10IAllocator;	.scl	2;	.type	32;	.endef
__ZnajR10IAllocator:
LFB764:
	.cfi_startproc
	.cfi_personality 0,___gxx_personality_v0
	.cfi_lsda 0,LLSDA764
	pushl	%ebp
	.cfi_def_cfa_offset 8
	.cfi_offset 5, -8
	movl	%esp, %ebp
	.cfi_def_cfa_register 5
	pushl	%edi
	pushl	%esi
	pushl	%ebx
	subl	$60, %esp
	.cfi_offset 7, -12
	.cfi_offset 6, -16
	.cfi_offset 3, -20
	movl	12(%ebp), %eax
	movl	(%eax), %eax
	addl	$12, %eax
	movl	(%eax), %eax
	movl	12(%ebp), %edx
	movl	%edx, (%esp)
LEHB129:
	call	*%eax
	movl	%eax, %edi
	movl	12(%ebp), %eax
	movl	(%eax), %eax
	addl	$8, %eax
	movl	(%eax), %eax
	movl	12(%ebp), %edx
	movl	%edx, (%esp)
	call	*%eax
	movl	%eax, %esi
	movl	12(%ebp), %eax
	movl	(%eax), %eax
	addl	$4, %eax
	movl	(%eax), %eax
	movl	12(%ebp), %edx
	movl	%edx, (%esp)
	call	*%eax
	movl	%eax, %ebx
	movl	12(%ebp), %eax
	movl	(%eax), %eax
	movl	(%eax), %eax
	movl	12(%ebp), %edx
	movl	%edx, (%esp)
	call	*%eax
	movl	%edi, 20(%esp)
	movl	%esi, 16(%esp)
	movl	%ebx, 12(%esp)
	movl	%eax, 8(%esp)
	movl	8(%ebp), %eax
	movl	%eax, 4(%esp)
	movl	$LC132, (%esp)
	call	_printf
	movl	12(%ebp), %eax
	movl	(%eax), %eax
	addl	$16, %eax
	movl	(%eax), %eax
	movl	$0, 12(%esp)
	movl	$4, 8(%esp)
	movl	8(%ebp), %edx
	movl	%edx, 4(%esp)
	movl	12(%ebp), %edx
	movl	%edx, (%esp)
	call	*%eax
	movl	%eax, -28(%ebp)
	movl	-28(%ebp), %eax
	movl	%eax, 4(%esp)
	movl	$LC131, (%esp)
	call	_printf
LEHE129:
	movl	-28(%ebp), %eax
	jmp	L733
L732:
	cmpl	$-1, %edx
	je	L731
	movl	%eax, (%esp)
LEHB130:
	call	__Unwind_Resume
L731:
	movl	%eax, (%esp)
	call	___cxa_call_unexpected
LEHE130:
L733:
	addl	$60, %esp
	popl	%ebx
	.cfi_restore 3
	popl	%esi
	.cfi_restore 6
	popl	%edi
	.cfi_restore 7
	popl	%ebp
	.cfi_restore 5
	.cfi_def_cfa 4, 4
	ret
	.cfi_endproc
LFE764:
	.section	.gcc_except_table,"w"
	.align 4
LLSDA764:
	.byte	0xff
	.byte	0
	.uleb128 LLSDATT764-LLSDATTD764
LLSDATTD764:
	.byte	0x1
	.uleb128 LLSDACSE764-LLSDACSB764
LLSDACSB764:
	.uleb128 LEHB129-LFB764
	.uleb128 LEHE129-LEHB129
	.uleb128 L732-LFB764
	.uleb128 0x1
	.uleb128 LEHB130-LFB764
	.uleb128 LEHE130-LEHB130
	.uleb128 0
	.uleb128 0
LLSDACSE764:
	.byte	0x7f
	.byte	0
	.align 4
LLSDATT764:
	.byte	0
	.text
	.section .rdata,"dr"
	.align 4
LC133:
	.ascii "placement delete(p=0x%p, i_allocator=\"%s\":%d/%d/%d)\12\0"
	.text
	.globl	__ZdlPvR10IAllocator
	.def	__ZdlPvR10IAllocator;	.scl	2;	.type	32;	.endef
__ZdlPvR10IAllocator:
LFB765:
	.cfi_startproc
	.cfi_personality 0,___gxx_personality_v0
	.cfi_lsda 0,LLSDA765
	pushl	%ebp
	.cfi_def_cfa_offset 8
	.cfi_offset 5, -8
	movl	%esp, %ebp
	.cfi_def_cfa_register 5
	pushl	%edi
	pushl	%esi
	pushl	%ebx
	subl	$44, %esp
	.cfi_offset 7, -12
	.cfi_offset 6, -16
	.cfi_offset 3, -20
	movl	12(%ebp), %eax
	movl	(%eax), %eax
	addl	$12, %eax
	movl	(%eax), %eax
	movl	12(%ebp), %edx
	movl	%edx, (%esp)
LEHB131:
	call	*%eax
	movl	%eax, %edi
	movl	12(%ebp), %eax
	movl	(%eax), %eax
	addl	$8, %eax
	movl	(%eax), %eax
	movl	12(%ebp), %edx
	movl	%edx, (%esp)
	call	*%eax
	movl	%eax, %esi
	movl	12(%ebp), %eax
	movl	(%eax), %eax
	addl	$4, %eax
	movl	(%eax), %eax
	movl	12(%ebp), %edx
	movl	%edx, (%esp)
	call	*%eax
	movl	%eax, %ebx
	movl	12(%ebp), %eax
	movl	(%eax), %eax
	movl	(%eax), %eax
	movl	12(%ebp), %edx
	movl	%edx, (%esp)
	call	*%eax
	movl	%edi, 20(%esp)
	movl	%esi, 16(%esp)
	movl	%ebx, 12(%esp)
	movl	%eax, 8(%esp)
	movl	8(%ebp), %eax
	movl	%eax, 4(%esp)
	movl	$LC133, (%esp)
	call	_printf
	movl	12(%ebp), %eax
	movl	(%eax), %eax
	addl	$20, %eax
	movl	(%eax), %eax
	movl	8(%ebp), %edx
	movl	%edx, 4(%esp)
	movl	12(%ebp), %edx
	movl	%edx, (%esp)
	call	*%eax
LEHE131:
	jmp	L738
L737:
	cmpl	$-1, %edx
	je	L736
	movl	%eax, (%esp)
LEHB132:
	call	__Unwind_Resume
L736:
	movl	%eax, (%esp)
	call	___cxa_call_unexpected
LEHE132:
L738:
	addl	$44, %esp
	popl	%ebx
	.cfi_restore 3
	popl	%esi
	.cfi_restore 6
	popl	%edi
	.cfi_restore 7
	popl	%ebp
	.cfi_restore 5
	.cfi_def_cfa 4, 4
	ret
	.cfi_endproc
LFE765:
	.section	.gcc_except_table,"w"
	.align 4
LLSDA765:
	.byte	0xff
	.byte	0
	.uleb128 LLSDATT765-LLSDATTD765
LLSDATTD765:
	.byte	0x1
	.uleb128 LLSDACSE765-LLSDACSB765
LLSDACSB765:
	.uleb128 LEHB131-LFB765
	.uleb128 LEHE131-LEHB131
	.uleb128 L737-LFB765
	.uleb128 0x1
	.uleb128 LEHB132-LFB765
	.uleb128 LEHE132-LEHB132
	.uleb128 0
	.uleb128 0
LLSDACSE765:
	.byte	0x7f
	.byte	0
	.align 4
LLSDATT765:
	.byte	0
	.text
	.section .rdata,"dr"
	.align 4
LC134:
	.ascii "placement delete[](p=0x%p, i_allocator=\"%s\":%d/%d/%d)\12\0"
	.text
	.globl	__ZdaPvR10IAllocator
	.def	__ZdaPvR10IAllocator;	.scl	2;	.type	32;	.endef
__ZdaPvR10IAllocator:
LFB766:
	.cfi_startproc
	.cfi_personality 0,___gxx_personality_v0
	.cfi_lsda 0,LLSDA766
	pushl	%ebp
	.cfi_def_cfa_offset 8
	.cfi_offset 5, -8
	movl	%esp, %ebp
	.cfi_def_cfa_register 5
	pushl	%edi
	pushl	%esi
	pushl	%ebx
	subl	$44, %esp
	.cfi_offset 7, -12
	.cfi_offset 6, -16
	.cfi_offset 3, -20
	movl	12(%ebp), %eax
	movl	(%eax), %eax
	addl	$12, %eax
	movl	(%eax), %eax
	movl	12(%ebp), %edx
	movl	%edx, (%esp)
LEHB133:
	call	*%eax
	movl	%eax, %edi
	movl	12(%ebp), %eax
	movl	(%eax), %eax
	addl	$8, %eax
	movl	(%eax), %eax
	movl	12(%ebp), %edx
	movl	%edx, (%esp)
	call	*%eax
	movl	%eax, %esi
	movl	12(%ebp), %eax
	movl	(%eax), %eax
	addl	$4, %eax
	movl	(%eax), %eax
	movl	12(%ebp), %edx
	movl	%edx, (%esp)
	call	*%eax
	movl	%eax, %ebx
	movl	12(%ebp), %eax
	movl	(%eax), %eax
	movl	(%eax), %eax
	movl	12(%ebp), %edx
	movl	%edx, (%esp)
	call	*%eax
	movl	%edi, 20(%esp)
	movl	%esi, 16(%esp)
	movl	%ebx, 12(%esp)
	movl	%eax, 8(%esp)
	movl	8(%ebp), %eax
	movl	%eax, 4(%esp)
	movl	$LC134, (%esp)
	call	_printf
	movl	12(%ebp), %eax
	movl	(%eax), %eax
	addl	$20, %eax
	movl	(%eax), %eax
	movl	8(%ebp), %edx
	movl	%edx, 4(%esp)
	movl	12(%ebp), %edx
	movl	%edx, (%esp)
	call	*%eax
LEHE133:
	jmp	L743
L742:
	cmpl	$-1, %edx
	je	L741
	movl	%eax, (%esp)
LEHB134:
	call	__Unwind_Resume
L741:
	movl	%eax, (%esp)
	call	___cxa_call_unexpected
LEHE134:
L743:
	addl	$44, %esp
	popl	%ebx
	.cfi_restore 3
	popl	%esi
	.cfi_restore 6
	popl	%edi
	.cfi_restore 7
	popl	%ebp
	.cfi_restore 5
	.cfi_def_cfa 4, 4
	ret
	.cfi_endproc
LFE766:
	.section	.gcc_except_table,"w"
	.align 4
LLSDA766:
	.byte	0xff
	.byte	0
	.uleb128 LLSDATT766-LLSDATTD766
LLSDATTD766:
	.byte	0x1
	.uleb128 LLSDACSE766-LLSDACSB766
LLSDACSB766:
	.uleb128 LEHB133-LFB766
	.uleb128 LEHE133-LEHB133
	.uleb128 L742-LFB766
	.uleb128 0x1
	.uleb128 LEHB134-LFB766
	.uleb128 LEHE134-LEHB134
	.uleb128 0
	.uleb128 0
LLSDACSE766:
	.byte	0x7f
	.byte	0
	.align 4
LLSDATT766:
	.byte	0
	.text
	.section .rdata,"dr"
	.align 4
LC135:
	.ascii "CTest6::DefaultConstructor : name=\"%s\"\12\0"
	.section	.text$_ZN6CTest6C1Ev,"x"
	.linkonce discard
	.align 2
	.globl	__ZN6CTest6C1Ev
	.def	__ZN6CTest6C1Ev;	.scl	2;	.type	32;	.endef
__ZN6CTest6C1Ev:
LFB771:
	.cfi_startproc
	.cfi_personality 0,___gxx_personality_v0
	.cfi_lsda 0,LLSDA771
	pushl	%ebp
	.cfi_def_cfa_offset 8
	.cfi_offset 5, -8
	movl	%esp, %ebp
	.cfi_def_cfa_register 5
	pushl	%ebx
	subl	$20, %esp
	.cfi_offset 3, -12
	movl	$LC10, 4(%esp)
	movl	8(%ebp), %eax
	movl	%eax, (%esp)
LEHB135:
	call	__ZN6CTest6C1EPKc
LEHE135:
	movl	8(%ebp), %eax
	movl	4(%eax), %eax
	movl	%eax, 4(%esp)
	movl	$LC135, (%esp)
LEHB136:
	call	_printf
LEHE136:
	jmp	L747
L746:
	movl	%eax, %ebx
	movl	8(%ebp), %eax
	movl	%eax, (%esp)
	call	__ZN6CTest6D1Ev
	movl	%ebx, %eax
	movl	%eax, (%esp)
LEHB137:
	call	__Unwind_Resume
LEHE137:
L747:
	addl	$20, %esp
	popl	%ebx
	.cfi_restore 3
	popl	%ebp
	.cfi_restore 5
	.cfi_def_cfa 4, 4
	ret
	.cfi_endproc
LFE771:
	.section	.gcc_except_table,"w"
LLSDA771:
	.byte	0xff
	.byte	0xff
	.byte	0x1
	.uleb128 LLSDACSE771-LLSDACSB771
LLSDACSB771:
	.uleb128 LEHB135-LFB771
	.uleb128 LEHE135-LEHB135
	.uleb128 0
	.uleb128 0
	.uleb128 LEHB136-LFB771
	.uleb128 LEHE136-LEHB136
	.uleb128 L746-LFB771
	.uleb128 0
	.uleb128 LEHB137-LFB771
	.uleb128 LEHE137-LEHB137
	.uleb128 0
	.uleb128 0
LLSDACSE771:
	.section	.text$_ZN6CTest6C1Ev,"x"
	.linkonce discard
	.section .rdata,"dr"
	.align 4
LC136:
	.ascii "CTest6::Constructor : name=\"%s\"\12\0"
	.section	.text$_ZN6CTest6C2EPKc,"x"
	.linkonce discard
	.align 2
	.globl	__ZN6CTest6C2EPKc
	.def	__ZN6CTest6C2EPKc;	.scl	2;	.type	32;	.endef
__ZN6CTest6C2EPKc:
LFB773:
	.cfi_startproc
	pushl	%ebp
	.cfi_def_cfa_offset 8
	.cfi_offset 5, -8
	movl	%esp, %ebp
	.cfi_def_cfa_register 5
	subl	$24, %esp
	movl	8(%ebp), %eax
	movl	$__ZTV6CTest6+8, (%eax)
	movl	8(%ebp), %eax
	movl	12(%ebp), %edx
	movl	%edx, 4(%eax)
	movl	8(%ebp), %eax
	movl	4(%eax), %eax
	movl	%eax, 4(%esp)
	movl	$LC136, (%esp)
	call	_printf
	leave
	.cfi_restore 5
	.cfi_def_cfa 4, 4
	ret
	.cfi_endproc
LFE773:
	.section	.text$_ZN6CTest6C1EPKc,"x"
	.linkonce discard
	.align 2
	.globl	__ZN6CTest6C1EPKc
	.def	__ZN6CTest6C1EPKc;	.scl	2;	.type	32;	.endef
__ZN6CTest6C1EPKc:
LFB774:
	.cfi_startproc
	pushl	%ebp
	.cfi_def_cfa_offset 8
	.cfi_offset 5, -8
	movl	%esp, %ebp
	.cfi_def_cfa_register 5
	subl	$24, %esp
	movl	8(%ebp), %eax
	movl	$__ZTV6CTest6+8, (%eax)
	movl	8(%ebp), %eax
	movl	12(%ebp), %edx
	movl	%edx, 4(%eax)
	movl	8(%ebp), %eax
	movl	4(%eax), %eax
	movl	%eax, 4(%esp)
	movl	$LC136, (%esp)
	call	_printf
	leave
	.cfi_restore 5
	.cfi_def_cfa 4, 4
	ret
	.cfi_endproc
LFE774:
	.section .rdata,"dr"
	.align 4
LC137:
	.ascii "CTest6::Destructor : name=\"%s\"\12\0"
	.section	.text$_ZN6CTest6D2Ev,"x"
	.linkonce discard
	.align 2
	.globl	__ZN6CTest6D2Ev
	.def	__ZN6CTest6D2Ev;	.scl	2;	.type	32;	.endef
__ZN6CTest6D2Ev:
LFB776:
	.cfi_startproc
	.cfi_personality 0,___gxx_personality_v0
	.cfi_lsda 0,LLSDA776
	pushl	%ebp
	.cfi_def_cfa_offset 8
	.cfi_offset 5, -8
	movl	%esp, %ebp
	.cfi_def_cfa_register 5
	subl	$24, %esp
	movl	8(%ebp), %eax
	movl	$__ZTV6CTest6+8, (%eax)
	movl	8(%ebp), %eax
	movl	4(%eax), %eax
	movl	%eax, 4(%esp)
	movl	$LC137, (%esp)
	call	_printf
	movl	$0, %eax
	testl	%eax, %eax
	je	L750
	movl	8(%ebp), %eax
	movl	%eax, (%esp)
	call	__ZdlPv
L750:
	leave
	.cfi_restore 5
	.cfi_def_cfa 4, 4
	ret
	.cfi_endproc
LFE776:
	.section	.gcc_except_table,"w"
LLSDA776:
	.byte	0xff
	.byte	0xff
	.byte	0x1
	.uleb128 LLSDACSE776-LLSDACSB776
LLSDACSB776:
LLSDACSE776:
	.section	.text$_ZN6CTest6D2Ev,"x"
	.linkonce discard
	.section	.text$_ZN6CTest6D1Ev,"x"
	.linkonce discard
	.align 2
	.globl	__ZN6CTest6D1Ev
	.def	__ZN6CTest6D1Ev;	.scl	2;	.type	32;	.endef
__ZN6CTest6D1Ev:
LFB777:
	.cfi_startproc
	.cfi_personality 0,___gxx_personality_v0
	.cfi_lsda 0,LLSDA777
	pushl	%ebp
	.cfi_def_cfa_offset 8
	.cfi_offset 5, -8
	movl	%esp, %ebp
	.cfi_def_cfa_register 5
	subl	$24, %esp
	movl	8(%ebp), %eax
	movl	$__ZTV6CTest6+8, (%eax)
	movl	8(%ebp), %eax
	movl	4(%eax), %eax
	movl	%eax, 4(%esp)
	movl	$LC137, (%esp)
	call	_printf
	movl	$0, %eax
	testl	%eax, %eax
	je	L753
	movl	8(%ebp), %eax
	movl	%eax, (%esp)
	call	__ZdlPv
L753:
	leave
	.cfi_restore 5
	.cfi_def_cfa 4, 4
	ret
	.cfi_endproc
LFE777:
	.section	.gcc_except_table,"w"
LLSDA777:
	.byte	0xff
	.byte	0xff
	.byte	0x1
	.uleb128 LLSDACSE777-LLSDACSB777
LLSDACSB777:
LLSDACSE777:
	.section	.text$_ZN6CTest6D1Ev,"x"
	.linkonce discard
	.section	.text$_ZN6CTest6D0Ev,"x"
	.linkonce discard
	.align 2
	.globl	__ZN6CTest6D0Ev
	.def	__ZN6CTest6D0Ev;	.scl	2;	.type	32;	.endef
__ZN6CTest6D0Ev:
LFB778:
	.cfi_startproc
	pushl	%ebp
	.cfi_def_cfa_offset 8
	.cfi_offset 5, -8
	movl	%esp, %ebp
	.cfi_def_cfa_register 5
	subl	$24, %esp
	movl	8(%ebp), %eax
	movl	%eax, (%esp)
	call	__ZN6CTest6D1Ev
	movl	8(%ebp), %eax
	movl	%eax, (%esp)
	call	__ZdlPv
	leave
	.cfi_restore 5
	.cfi_def_cfa 4, 4
	ret
	.cfi_endproc
LFE778:
	.section .rdata,"dr"
LC138:
	.ascii "CTest6ex::Constructor\0"
	.section	.text$_ZN8CTest6exC2Ev,"x"
	.linkonce discard
	.align 2
	.globl	__ZN8CTest6exC2Ev
	.def	__ZN8CTest6exC2Ev;	.scl	2;	.type	32;	.endef
__ZN8CTest6exC2Ev:
LFB780:
	.cfi_startproc
	pushl	%ebp
	.cfi_def_cfa_offset 8
	.cfi_offset 5, -8
	movl	%esp, %ebp
	.cfi_def_cfa_register 5
	subl	$24, %esp
	movl	8(%ebp), %eax
	movl	$__ZTV8CTest6ex+8, (%eax)
	movl	$LC138, (%esp)
	call	_puts
	leave
	.cfi_restore 5
	.cfi_def_cfa 4, 4
	ret
	.cfi_endproc
LFE780:
	.section .rdata,"dr"
LC139:
	.ascii "CTest6ex::Destructor\0"
	.section	.text$_ZN8CTest6exD2Ev,"x"
	.linkonce discard
	.align 2
	.globl	__ZN8CTest6exD2Ev
	.def	__ZN8CTest6exD2Ev;	.scl	2;	.type	32;	.endef
__ZN8CTest6exD2Ev:
LFB783:
	.cfi_startproc
	.cfi_personality 0,___gxx_personality_v0
	.cfi_lsda 0,LLSDA783
	pushl	%ebp
	.cfi_def_cfa_offset 8
	.cfi_offset 5, -8
	movl	%esp, %ebp
	.cfi_def_cfa_register 5
	subl	$24, %esp
	movl	8(%ebp), %eax
	movl	$__ZTV8CTest6ex+8, (%eax)
	movl	$LC139, (%esp)
	call	_puts
	movl	$0, %eax
	testl	%eax, %eax
	je	L759
	movl	8(%ebp), %eax
	movl	%eax, (%esp)
	call	__ZdlPv
L759:
	leave
	.cfi_restore 5
	.cfi_def_cfa 4, 4
	ret
	.cfi_endproc
LFE783:
	.section	.gcc_except_table,"w"
LLSDA783:
	.byte	0xff
	.byte	0xff
	.byte	0x1
	.uleb128 LLSDACSE783-LLSDACSB783
LLSDACSB783:
LLSDACSE783:
	.section	.text$_ZN8CTest6exD2Ev,"x"
	.linkonce discard
	.section	.text$_ZN8CTest6exD1Ev,"x"
	.linkonce discard
	.align 2
	.globl	__ZN8CTest6exD1Ev
	.def	__ZN8CTest6exD1Ev;	.scl	2;	.type	32;	.endef
__ZN8CTest6exD1Ev:
LFB784:
	.cfi_startproc
	.cfi_personality 0,___gxx_personality_v0
	.cfi_lsda 0,LLSDA784
	pushl	%ebp
	.cfi_def_cfa_offset 8
	.cfi_offset 5, -8
	movl	%esp, %ebp
	.cfi_def_cfa_register 5
	subl	$24, %esp
	movl	8(%ebp), %eax
	movl	$__ZTV8CTest6ex+8, (%eax)
	movl	$LC139, (%esp)
	call	_puts
	movl	$0, %eax
	testl	%eax, %eax
	je	L762
	movl	8(%ebp), %eax
	movl	%eax, (%esp)
	call	__ZdlPv
L762:
	leave
	.cfi_restore 5
	.cfi_def_cfa 4, 4
	ret
	.cfi_endproc
LFE784:
	.section	.gcc_except_table,"w"
LLSDA784:
	.byte	0xff
	.byte	0xff
	.byte	0x1
	.uleb128 LLSDACSE784-LLSDACSB784
LLSDACSB784:
LLSDACSE784:
	.section	.text$_ZN8CTest6exD1Ev,"x"
	.linkonce discard
	.section	.text$_ZN8CTest6exD0Ev,"x"
	.linkonce discard
	.align 2
	.globl	__ZN8CTest6exD0Ev
	.def	__ZN8CTest6exD0Ev;	.scl	2;	.type	32;	.endef
__ZN8CTest6exD0Ev:
LFB785:
	.cfi_startproc
	pushl	%ebp
	.cfi_def_cfa_offset 8
	.cfi_offset 5, -8
	movl	%esp, %ebp
	.cfi_def_cfa_register 5
	subl	$24, %esp
	movl	8(%ebp), %eax
	movl	%eax, (%esp)
	call	__ZN8CTest6exD1Ev
	movl	8(%ebp), %eax
	movl	%eax, (%esp)
	call	__ZdlPv
	leave
	.cfi_restore 5
	.cfi_def_cfa 4, 4
	ret
	.cfi_endproc
LFE785:
	.section .rdata,"dr"
	.align 4
LC140:
	.ascii "CDerivedTest6::Constructor : name=\"%s\"\12\0"
	.section	.text$_ZN13CDerivedTest6C1EPKc,"x"
	.linkonce discard
	.align 2
	.globl	__ZN13CDerivedTest6C1EPKc
	.def	__ZN13CDerivedTest6C1EPKc;	.scl	2;	.type	32;	.endef
__ZN13CDerivedTest6C1EPKc:
LFB791:
	.cfi_startproc
	.cfi_personality 0,___gxx_personality_v0
	.cfi_lsda 0,LLSDA791
	pushl	%ebp
	.cfi_def_cfa_offset 8
	.cfi_offset 5, -8
	movl	%esp, %ebp
	.cfi_def_cfa_register 5
	pushl	%ebx
	subl	$20, %esp
	.cfi_offset 3, -12
	movl	8(%ebp), %eax
	movl	12(%ebp), %edx
	movl	%edx, 4(%esp)
	movl	%eax, (%esp)
LEHB138:
	call	__ZN6CTest6C2EPKc
LEHE138:
	movl	8(%ebp), %eax
	addl	$12, %eax
	movl	%eax, (%esp)
LEHB139:
	call	__ZN8CTest6exC2Ev
LEHE139:
	movl	8(%ebp), %eax
	movl	$__ZTV13CDerivedTest6+8, (%eax)
	movl	8(%ebp), %eax
	movl	$__ZTV13CDerivedTest6+24, 12(%eax)
	movl	8(%ebp), %eax
	movl	4(%eax), %eax
	movl	%eax, 4(%esp)
	movl	$LC140, (%esp)
LEHB140:
	call	_printf
LEHE140:
	jmp	L772
L771:
	movl	%eax, %ebx
	movl	8(%ebp), %eax
	addl	$12, %eax
	movl	%eax, (%esp)
	call	__ZN8CTest6exD2Ev
	jmp	L769
L770:
	movl	%eax, %ebx
L769:
	movl	8(%ebp), %eax
	movl	%eax, (%esp)
	call	__ZN6CTest6D2Ev
	movl	%ebx, %eax
	movl	%eax, (%esp)
LEHB141:
	call	__Unwind_Resume
LEHE141:
L772:
	addl	$20, %esp
	popl	%ebx
	.cfi_restore 3
	popl	%ebp
	.cfi_restore 5
	.cfi_def_cfa 4, 4
	ret
	.cfi_endproc
LFE791:
	.section	.gcc_except_table,"w"
LLSDA791:
	.byte	0xff
	.byte	0xff
	.byte	0x1
	.uleb128 LLSDACSE791-LLSDACSB791
LLSDACSB791:
	.uleb128 LEHB138-LFB791
	.uleb128 LEHE138-LEHB138
	.uleb128 0
	.uleb128 0
	.uleb128 LEHB139-LFB791
	.uleb128 LEHE139-LEHB139
	.uleb128 L770-LFB791
	.uleb128 0
	.uleb128 LEHB140-LFB791
	.uleb128 LEHE140-LEHB140
	.uleb128 L771-LFB791
	.uleb128 0
	.uleb128 LEHB141-LFB791
	.uleb128 LEHE141-LEHB141
	.uleb128 0
	.uleb128 0
LLSDACSE791:
	.section	.text$_ZN13CDerivedTest6C1EPKc,"x"
	.linkonce discard
	.section .rdata,"dr"
	.align 4
LC141:
	.ascii "CDerivedTest6::Destructor : name=\"%s\"\12\0"
	.section	.text$_ZN13CDerivedTest6D1Ev,"x"
	.linkonce discard
	.align 2
	.globl	__ZN13CDerivedTest6D1Ev
	.def	__ZN13CDerivedTest6D1Ev;	.scl	2;	.type	32;	.endef
__ZN13CDerivedTest6D1Ev:
LFB794:
	.cfi_startproc
	.cfi_personality 0,___gxx_personality_v0
	.cfi_lsda 0,LLSDA794
	pushl	%ebp
	.cfi_def_cfa_offset 8
	.cfi_offset 5, -8
	movl	%esp, %ebp
	.cfi_def_cfa_register 5
	subl	$24, %esp
	movl	8(%ebp), %eax
	movl	$__ZTV13CDerivedTest6+8, (%eax)
	movl	8(%ebp), %eax
	movl	$__ZTV13CDerivedTest6+24, 12(%eax)
	movl	8(%ebp), %eax
	movl	4(%eax), %eax
	movl	%eax, 4(%esp)
	movl	$LC141, (%esp)
	call	_printf
	movl	8(%ebp), %eax
	addl	$12, %eax
	movl	%eax, (%esp)
	call	__ZN8CTest6exD2Ev
	movl	8(%ebp), %eax
	movl	%eax, (%esp)
	call	__ZN6CTest6D2Ev
	movl	$0, %eax
	testl	%eax, %eax
	je	L773
	movl	8(%ebp), %eax
	movl	%eax, (%esp)
	call	__ZdlPv
L773:
	leave
	.cfi_restore 5
	.cfi_def_cfa 4, 4
	ret
	.cfi_endproc
LFE794:
	.section	.gcc_except_table,"w"
LLSDA794:
	.byte	0xff
	.byte	0xff
	.byte	0x1
	.uleb128 LLSDACSE794-LLSDACSB794
LLSDACSB794:
LLSDACSE794:
	.section	.text$_ZN13CDerivedTest6D1Ev,"x"
	.linkonce discard
	.section	.text$_ZThn12_N13CDerivedTest6D1Ev,"x"
	.linkonce discard
	.globl	__ZThn12_N13CDerivedTest6D1Ev
	.def	__ZThn12_N13CDerivedTest6D1Ev;	.scl	2;	.type	32;	.endef
__ZThn12_N13CDerivedTest6D1Ev:
LFB3873:
	.cfi_startproc
	subl	$12, 4(%esp)
	jmp	__ZN13CDerivedTest6D1Ev
	.cfi_endproc
LFE3873:
	.section	.text$_ZN13CDerivedTest6D0Ev,"x"
	.linkonce discard
	.align 2
	.globl	__ZN13CDerivedTest6D0Ev
	.def	__ZN13CDerivedTest6D0Ev;	.scl	2;	.type	32;	.endef
__ZN13CDerivedTest6D0Ev:
LFB795:
	.cfi_startproc
	pushl	%ebp
	.cfi_def_cfa_offset 8
	.cfi_offset 5, -8
	movl	%esp, %ebp
	.cfi_def_cfa_register 5
	subl	$24, %esp
	movl	8(%ebp), %eax
	movl	%eax, (%esp)
	call	__ZN13CDerivedTest6D1Ev
	movl	8(%ebp), %eax
	movl	%eax, (%esp)
	call	__ZdlPv
	leave
	.cfi_restore 5
	.cfi_def_cfa 4, 4
	ret
	.cfi_endproc
LFE795:
	.section	.text$_ZThn12_N13CDerivedTest6D0Ev,"x"
	.linkonce discard
	.globl	__ZThn12_N13CDerivedTest6D0Ev
	.def	__ZThn12_N13CDerivedTest6D0Ev;	.scl	2;	.type	32;	.endef
__ZThn12_N13CDerivedTest6D0Ev:
LFB3874:
	.cfi_startproc
	subl	$12, 4(%esp)
	jmp	__ZN13CDerivedTest6D0Ev
	.cfi_endproc
LFE3874:
	.text
	.globl	__Z10test6_sub1PKcR10IAllocator
	.def	__Z10test6_sub1PKcR10IAllocator;	.scl	2;	.type	32;	.endef
__Z10test6_sub1PKcR10IAllocator:
LFB796:
	.cfi_startproc
	.cfi_personality 0,___gxx_personality_v0
	.cfi_lsda 0,LLSDA796
	pushl	%ebp
	.cfi_def_cfa_offset 8
	.cfi_offset 5, -8
	movl	%esp, %ebp
	.cfi_def_cfa_register 5
	pushl	%esi
	pushl	%ebx
	subl	$32, %esp
	.cfi_offset 6, -12
	.cfi_offset 3, -16
	movl	12(%ebp), %eax
	movl	%eax, 4(%esp)
	movl	$12, (%esp)
	call	__ZnwjR10IAllocator
	movl	%eax, %ebx
	testl	%ebx, %ebx
	je	L779
	movl	8(%ebp), %eax
	movl	%eax, 4(%esp)
	movl	%ebx, (%esp)
LEHB142:
	call	__ZN6CTest6C1EPKc
LEHE142:
	movl	%ebx, %eax
	jmp	L780
L779:
	movl	%ebx, %eax
L780:
	movl	%eax, -12(%ebp)
	movl	-12(%ebp), %eax
	movl	%eax, 4(%esp)
	movl	$LC5, (%esp)
LEHB143:
	call	_printf
	movl	12(%ebp), %eax
	movl	%eax, 4(%esp)
	leal	-12(%ebp), %eax
	movl	%eax, (%esp)
	call	__Z10delete_ptrI6CTest6EvRPT_R10IAllocator
LEHE143:
	jmp	L785
L783:
	movl	%eax, %esi
	movl	12(%ebp), %eax
	movl	%eax, 4(%esp)
	movl	%ebx, (%esp)
	call	__ZdlPvR10IAllocator
	movl	%esi, %eax
	jmp	L782
L784:
L782:
	movl	%eax, (%esp)
LEHB144:
	call	__Unwind_Resume
LEHE144:
L785:
	addl	$32, %esp
	popl	%ebx
	.cfi_restore 3
	popl	%esi
	.cfi_restore 6
	popl	%ebp
	.cfi_restore 5
	.cfi_def_cfa 4, 4
	ret
	.cfi_endproc
LFE796:
	.section	.gcc_except_table,"w"
LLSDA796:
	.byte	0xff
	.byte	0xff
	.byte	0x1
	.uleb128 LLSDACSE796-LLSDACSB796
LLSDACSB796:
	.uleb128 LEHB142-LFB796
	.uleb128 LEHE142-LEHB142
	.uleb128 L783-LFB796
	.uleb128 0
	.uleb128 LEHB143-LFB796
	.uleb128 LEHE143-LEHB143
	.uleb128 L784-LFB796
	.uleb128 0
	.uleb128 LEHB144-LFB796
	.uleb128 LEHE144-LEHB144
	.uleb128 0
	.uleb128 0
LLSDACSE796:
	.text
	.globl	__Z10test6_sub2R10IAllocator
	.def	__Z10test6_sub2R10IAllocator;	.scl	2;	.type	32;	.endef
__Z10test6_sub2R10IAllocator:
LFB797:
	.cfi_startproc
	.cfi_personality 0,___gxx_personality_v0
	.cfi_lsda 0,LLSDA797
	pushl	%ebp
	.cfi_def_cfa_offset 8
	.cfi_offset 5, -8
	movl	%esp, %ebp
	.cfi_def_cfa_register 5
	pushl	%edi
	pushl	%esi
	pushl	%ebx
	subl	$44, %esp
	.cfi_offset 7, -12
	.cfi_offset 6, -16
	.cfi_offset 3, -20
	movl	8(%ebp), %eax
	movl	%eax, 4(%esp)
	movl	$40, (%esp)
	call	__ZnajR10IAllocator
	movl	%eax, %ebx
	testl	%ebx, %ebx
	je	L787
	movl	$3, (%ebx)
	leal	4(%ebx), %edi
	movl	$2, %esi
	movl	%edi, -44(%ebp)
	jmp	L788
L789:
	movl	-44(%ebp), %eax
	movl	%eax, (%esp)
LEHB145:
	call	__ZN6CTest6C1Ev
LEHE145:
	addl	$12, -44(%ebp)
	subl	$1, %esi
L788:
	cmpl	$-1, %esi
	jne	L789
	leal	4(%ebx), %eax
	jmp	L790
L787:
	movl	%ebx, %eax
L790:
	movl	%eax, -28(%ebp)
	movl	-28(%ebp), %eax
	movl	%eax, 4(%esp)
	movl	$LC5, (%esp)
LEHB146:
	call	_printf
	movl	8(%ebp), %eax
	movl	%eax, 8(%esp)
	movl	$3, 4(%esp)
	leal	-28(%ebp), %eax
	movl	%eax, (%esp)
	call	__Z10delete_ptrI6CTest6EvRPT_jR10IAllocator
LEHE146:
	jmp	L797
L795:
	movl	%eax, -44(%ebp)
	testl	%edi, %edi
	je	L792
	movl	$2, %eax
	subl	%esi, %eax
	movl	%eax, %edx
	movl	%edx, %eax
	addl	%eax, %eax
	addl	%edx, %eax
	sall	$2, %eax
	leal	(%edi,%eax), %esi
L793:
	cmpl	%edi, %esi
	je	L792
	subl	$12, %esi
	movl	(%esi), %eax
	movl	(%eax), %eax
	movl	%esi, (%esp)
	call	*%eax
	jmp	L793
L792:
	movl	-44(%ebp), %esi
	movl	8(%ebp), %eax
	movl	%eax, 4(%esp)
	movl	%ebx, (%esp)
	call	__ZdaPvR10IAllocator
	movl	%esi, %eax
	jmp	L794
L796:
L794:
	movl	%eax, (%esp)
LEHB147:
	call	__Unwind_Resume
LEHE147:
L797:
	addl	$44, %esp
	popl	%ebx
	.cfi_restore 3
	popl	%esi
	.cfi_restore 6
	popl	%edi
	.cfi_restore 7
	popl	%ebp
	.cfi_restore 5
	.cfi_def_cfa 4, 4
	ret
	.cfi_endproc
LFE797:
	.section	.gcc_except_table,"w"
LLSDA797:
	.byte	0xff
	.byte	0xff
	.byte	0x1
	.uleb128 LLSDACSE797-LLSDACSB797
LLSDACSB797:
	.uleb128 LEHB145-LFB797
	.uleb128 LEHE145-LEHB145
	.uleb128 L795-LFB797
	.uleb128 0
	.uleb128 LEHB146-LFB797
	.uleb128 LEHE146-LEHB146
	.uleb128 L796-LFB797
	.uleb128 0
	.uleb128 LEHB147-LFB797
	.uleb128 LEHE147-LEHB147
	.uleb128 0
	.uleb128 0
LLSDACSE797:
	.text
	.globl	__Z10test6_sub3PKcR10IAllocator
	.def	__Z10test6_sub3PKcR10IAllocator;	.scl	2;	.type	32;	.endef
__Z10test6_sub3PKcR10IAllocator:
LFB798:
	.cfi_startproc
	.cfi_personality 0,___gxx_personality_v0
	.cfi_lsda 0,LLSDA798
	pushl	%ebp
	.cfi_def_cfa_offset 8
	.cfi_offset 5, -8
	movl	%esp, %ebp
	.cfi_def_cfa_register 5
	pushl	%esi
	pushl	%ebx
	subl	$32, %esp
	.cfi_offset 6, -12
	.cfi_offset 3, -16
	movl	12(%ebp), %eax
	movl	%eax, 4(%esp)
	movl	$24, (%esp)
	call	__ZnwjR10IAllocator
	movl	%eax, %ebx
	testl	%ebx, %ebx
	je	L799
	movl	8(%ebp), %eax
	movl	%eax, 4(%esp)
	movl	%ebx, (%esp)
LEHB148:
	call	__ZN13CDerivedTest6C1EPKc
LEHE148:
	movl	%ebx, %eax
	jmp	L800
L799:
	movl	%ebx, %eax
L800:
	testl	%eax, %eax
	je	L801
	addl	$12, %eax
	jmp	L802
L801:
	movl	$0, %eax
L802:
	movl	%eax, -12(%ebp)
	movl	-12(%ebp), %eax
	movl	%eax, 4(%esp)
	movl	$LC5, (%esp)
LEHB149:
	call	_printf
	movl	12(%ebp), %eax
	movl	%eax, 4(%esp)
	leal	-12(%ebp), %eax
	movl	%eax, (%esp)
	call	__Z10delete_ptrI8CTest6exEvRPT_R10IAllocator
LEHE149:
	jmp	L807
L805:
	movl	%eax, %esi
	movl	12(%ebp), %eax
	movl	%eax, 4(%esp)
	movl	%ebx, (%esp)
	call	__ZdlPvR10IAllocator
	movl	%esi, %eax
	jmp	L804
L806:
L804:
	movl	%eax, (%esp)
LEHB150:
	call	__Unwind_Resume
LEHE150:
L807:
	addl	$32, %esp
	popl	%ebx
	.cfi_restore 3
	popl	%esi
	.cfi_restore 6
	popl	%ebp
	.cfi_restore 5
	.cfi_def_cfa 4, 4
	ret
	.cfi_endproc
LFE798:
	.section	.gcc_except_table,"w"
LLSDA798:
	.byte	0xff
	.byte	0xff
	.byte	0x1
	.uleb128 LLSDACSE798-LLSDACSB798
LLSDACSB798:
	.uleb128 LEHB148-LFB798
	.uleb128 LEHE148-LEHB148
	.uleb128 L805-LFB798
	.uleb128 0
	.uleb128 LEHB149-LFB798
	.uleb128 LEHE149-LEHB149
	.uleb128 L806-LFB798
	.uleb128 0
	.uleb128 LEHB150-LFB798
	.uleb128 LEHE150-LEHB150
	.uleb128 0
	.uleb128 0
LLSDACSE798:
	.text
	.section .rdata,"dr"
	.align 4
LC142:
	.ascii "---------- test6:\345\205\261\351\200\232\343\202\242\343\203\255\343\202\261\343\203\274\343\202\277\343\202\244\343\203\263\343\202\277\343\203\274\343\203\225\343\202\247\343\203\274\343\202\271 ----------\0"
LC143:
	.ascii "----------CStdAllocAdp\0"
LC144:
	.ascii "\343\203\206\343\202\271\343\203\210"
	.ascii "6-1a\0"
LC145:
	.ascii "----------CMonoAllocAdp\0"
LC146:
	.ascii "\343\203\206\343\202\271\343\203\210"
	.ascii "6-2a\0"
LC147:
	.ascii "\343\203\206\343\202\271\343\203\210"
	.ascii "6-2b\0"
LC148:
	.ascii "----------CStackAllocAdp\0"
LC149:
	.ascii "\343\203\206\343\202\271\343\203\210"
	.ascii "6-3a\0"
LC150:
	.ascii "\343\203\206\343\202\271\343\203\210"
	.ascii "6-3b\0"
LC151:
	.ascii "----------CDualStackAllocAdp\0"
LC152:
	.ascii "\343\203\206\343\202\271\343\203\210"
	.ascii "6-4a\0"
LC153:
	.ascii "\343\203\206\343\202\271\343\203\210"
	.ascii "6-4b\0"
	.align 4
LC154:
	.ascii "----------CIStackAllocAdp on CStackAllocAdp\0"
LC155:
	.ascii "\343\203\206\343\202\271\343\203\210"
	.ascii "6-5a\0"
LC156:
	.ascii "\343\203\206\343\202\271\343\203\210"
	.ascii "6-5b\0"
	.align 4
LC157:
	.ascii "----------CIStackAllocAdp on CDualStackAllocAdp\0"
LC158:
	.ascii "\343\203\206\343\202\271\343\203\210"
	.ascii "6-6a\0"
LC159:
	.ascii "\343\203\206\343\202\271\343\203\210"
	.ascii "6-6b\0"
LC160:
	.ascii "----------CPoolAllocAdp\0"
LC161:
	.ascii "\343\203\206\343\202\271\343\203\210"
	.ascii "6-7a\0"
LC162:
	.ascii "\343\203\206\343\202\271\343\203\210"
	.ascii "6-7b\0"
	.text
	.globl	__Z5test6v
	.def	__Z5test6v;	.scl	2;	.type	32;	.endef
__Z5test6v:
LFB799:
	.cfi_startproc
	.cfi_personality 0,___gxx_personality_v0
	.cfi_lsda 0,LLSDA799
	pushl	%ebp
	.cfi_def_cfa_offset 8
	.cfi_offset 5, -8
	movl	%esp, %ebp
	.cfi_def_cfa_register 5
	pushl	%ebx
	subl	$708, %esp
	.cfi_offset 3, -12
	movl	$LC142, (%esp)
LEHB151:
	call	_puts
LEHE151:
	movl	$LC143, (%esp)
LEHB152:
	call	_puts
LEHE152:
	leal	-12(%ebp), %eax
	movl	%eax, (%esp)
	call	__ZN12CStdAllocAdpC1Ev
	leal	-12(%ebp), %eax
	movl	%eax, 4(%esp)
	movl	$LC144, (%esp)
LEHB153:
	call	__Z10test6_sub1PKcR10IAllocator
LEHE153:
	leal	-12(%ebp), %eax
	movl	%eax, (%esp)
	call	__ZN12CStdAllocAdpD1Ev
	movl	$LC145, (%esp)
LEHB154:
	call	_puts
LEHE154:
	leal	-692(%ebp), %eax
	movl	%eax, (%esp)
	call	__ZN21CMonoAllocAdpWithBuffILj128EEC1Ev
	leal	-692(%ebp), %eax
	movl	%eax, 4(%esp)
	movl	$LC146, (%esp)
LEHB155:
	call	__Z10test6_sub1PKcR10IAllocator
	leal	-692(%ebp), %eax
	movl	%eax, (%esp)
	call	__Z10test6_sub2R10IAllocator
	leal	-692(%ebp), %eax
	movl	%eax, 4(%esp)
	movl	$LC147, (%esp)
	call	__Z10test6_sub3PKcR10IAllocator
LEHE155:
	leal	-692(%ebp), %eax
	movl	%eax, (%esp)
	call	__ZN21CMonoAllocAdpWithBuffILj128EED1Ev
	movl	$LC148, (%esp)
LEHB156:
	call	_puts
LEHE156:
	leal	-692(%ebp), %eax
	movl	%eax, (%esp)
	call	__ZN23CStackAllocatorWithBuffILj128EEC1Ev
	movl	$0, 8(%esp)
	leal	-692(%ebp), %eax
	movl	%eax, 4(%esp)
	leal	-28(%ebp), %eax
	movl	%eax, (%esp)
LEHB157:
	call	__ZN14CStackAllocAdpC1ER15CStackAllocatorN15CIStackAllocAdp13E_AUTO_REWINDE
LEHE157:
	leal	-28(%ebp), %eax
	movl	%eax, 4(%esp)
	movl	$LC149, (%esp)
LEHB158:
	call	__Z10test6_sub1PKcR10IAllocator
LEHE158:
	movl	$1, 8(%esp)
	leal	-692(%ebp), %eax
	movl	%eax, 4(%esp)
	leal	-44(%ebp), %eax
	movl	%eax, (%esp)
LEHB159:
	call	__ZN14CStackAllocAdpC1ER15CStackAllocatorN15CIStackAllocAdp13E_AUTO_REWINDE
LEHE159:
	leal	-44(%ebp), %eax
	movl	%eax, (%esp)
LEHB160:
	call	__Z10test6_sub2R10IAllocator
LEHE160:
	leal	-44(%ebp), %eax
	movl	%eax, (%esp)
	call	__ZN14CStackAllocAdpD1Ev
	leal	-28(%ebp), %eax
	movl	%eax, 4(%esp)
	movl	$LC150, (%esp)
LEHB161:
	call	__Z10test6_sub3PKcR10IAllocator
LEHE161:
	leal	-28(%ebp), %eax
	movl	%eax, (%esp)
	call	__ZN14CStackAllocAdpD1Ev
	leal	-692(%ebp), %eax
	movl	%eax, (%esp)
	call	__ZN23CStackAllocatorWithBuffILj128EED1Ev
	movl	$LC151, (%esp)
LEHB162:
	call	_puts
LEHE162:
	movl	$1, 4(%esp)
	leal	-692(%ebp), %eax
	movl	%eax, (%esp)
	call	__ZN27CDualStackAllocatorWithBuffILj128EEC1EN15IStackAllocator9E_ORDEREDE
	movl	$0, 12(%esp)
	movl	$-1, 8(%esp)
	leal	-692(%ebp), %eax
	movl	%eax, 4(%esp)
	leal	-68(%ebp), %eax
	movl	%eax, (%esp)
LEHB163:
	call	__ZN18CDualStackAllocAdpC1ER19CDualStackAllocatorN15IStackAllocator9E_ORDEREDEN15CIStackAllocAdp13E_AUTO_REWINDE
LEHE163:
	leal	-68(%ebp), %eax
	movl	%eax, 4(%esp)
	movl	$LC152, (%esp)
LEHB164:
	call	__Z10test6_sub1PKcR10IAllocator
LEHE164:
	movl	$1, 12(%esp)
	movl	$-1, 8(%esp)
	leal	-692(%ebp), %eax
	movl	%eax, 4(%esp)
	leal	-92(%ebp), %eax
	movl	%eax, (%esp)
LEHB165:
	call	__ZN18CDualStackAllocAdpC1ER19CDualStackAllocatorN15IStackAllocator9E_ORDEREDEN15CIStackAllocAdp13E_AUTO_REWINDE
LEHE165:
	leal	-92(%ebp), %eax
	movl	%eax, (%esp)
LEHB166:
	call	__Z10test6_sub2R10IAllocator
LEHE166:
	leal	-92(%ebp), %eax
	movl	%eax, (%esp)
	call	__ZN18CDualStackAllocAdpD1Ev
	leal	-68(%ebp), %eax
	movl	%eax, 4(%esp)
	movl	$LC153, (%esp)
LEHB167:
	call	__Z10test6_sub3PKcR10IAllocator
LEHE167:
	leal	-68(%ebp), %eax
	movl	%eax, (%esp)
	call	__ZN18CDualStackAllocAdpD1Ev
	leal	-692(%ebp), %eax
	movl	%eax, (%esp)
	call	__ZN27CDualStackAllocatorWithBuffILj128EED1Ev
	movl	$LC154, (%esp)
LEHB168:
	call	_puts
LEHE168:
	leal	-692(%ebp), %eax
	movl	%eax, (%esp)
	call	__ZN23CStackAllocatorWithBuffILj128EEC1Ev
	movl	$0, 8(%esp)
	leal	-692(%ebp), %eax
	movl	%eax, 4(%esp)
	leal	-108(%ebp), %eax
	movl	%eax, (%esp)
LEHB169:
	call	__ZN15CIStackAllocAdpC1ER15IStackAllocatorNS_13E_AUTO_REWINDE
LEHE169:
	leal	-108(%ebp), %eax
	movl	%eax, 4(%esp)
	movl	$LC155, (%esp)
LEHB170:
	call	__Z10test6_sub1PKcR10IAllocator
LEHE170:
	movl	$1, 8(%esp)
	leal	-692(%ebp), %eax
	movl	%eax, 4(%esp)
	leal	-124(%ebp), %eax
	movl	%eax, (%esp)
LEHB171:
	call	__ZN15CIStackAllocAdpC1ER15IStackAllocatorNS_13E_AUTO_REWINDE
LEHE171:
	leal	-124(%ebp), %eax
	movl	%eax, (%esp)
LEHB172:
	call	__Z10test6_sub2R10IAllocator
LEHE172:
	leal	-124(%ebp), %eax
	movl	%eax, (%esp)
	call	__ZN15CIStackAllocAdpD1Ev
	leal	-108(%ebp), %eax
	movl	%eax, 4(%esp)
	movl	$LC156, (%esp)
LEHB173:
	call	__Z10test6_sub3PKcR10IAllocator
LEHE173:
	leal	-108(%ebp), %eax
	movl	%eax, (%esp)
	call	__ZN15CIStackAllocAdpD1Ev
	leal	-692(%ebp), %eax
	movl	%eax, (%esp)
	call	__ZN23CStackAllocatorWithBuffILj128EED1Ev
	movl	$LC157, (%esp)
LEHB174:
	call	_puts
LEHE174:
	movl	$1, 4(%esp)
	leal	-692(%ebp), %eax
	movl	%eax, (%esp)
	call	__ZN27CDualStackAllocatorWithBuffILj128EEC1EN15IStackAllocator9E_ORDEREDE
	movl	$0, 8(%esp)
	leal	-692(%ebp), %eax
	movl	%eax, 4(%esp)
	leal	-140(%ebp), %eax
	movl	%eax, (%esp)
LEHB175:
	call	__ZN15CIStackAllocAdpC1ER15IStackAllocatorNS_13E_AUTO_REWINDE
LEHE175:
	leal	-140(%ebp), %eax
	movl	%eax, 4(%esp)
	movl	$LC158, (%esp)
LEHB176:
	call	__Z10test6_sub1PKcR10IAllocator
LEHE176:
	movl	$1, 8(%esp)
	leal	-692(%ebp), %eax
	movl	%eax, 4(%esp)
	leal	-156(%ebp), %eax
	movl	%eax, (%esp)
LEHB177:
	call	__ZN15CIStackAllocAdpC1ER15IStackAllocatorNS_13E_AUTO_REWINDE
LEHE177:
	leal	-156(%ebp), %eax
	movl	%eax, (%esp)
LEHB178:
